ARM GAS  C:\Users\bulli\AppData\Local\Temp\ccMLKjFn.s 			page 1


   1              		.cpu cortex-m4
   2              		.arch armv7e-m
   3              		.fpu fpv4-sp-d16
   4              		.eabi_attribute 27, 1
   5              		.eabi_attribute 28, 1
   6              		.eabi_attribute 20, 1
   7              		.eabi_attribute 21, 1
   8              		.eabi_attribute 23, 3
   9              		.eabi_attribute 24, 1
  10              		.eabi_attribute 25, 1
  11              		.eabi_attribute 26, 1
  12              		.eabi_attribute 30, 1
  13              		.eabi_attribute 34, 1
  14              		.eabi_attribute 18, 4
  15              		.file	"main.c"
  16              		.text
  17              	.Ltext0:
  18              		.cfi_sections	.debug_frame
  19              		.file 1 "Core/Src/main.c"
  20              		.section	.text.crc8_dallas,"ax",%progbits
  21              		.align	1
  22              		.syntax unified
  23              		.thumb
  24              		.thumb_func
  26              	crc8_dallas:
  27              	.LVL0:
  28              	.LFB134:
   1:Core/Src/main.c **** /* USER CODE BEGIN Header */
   2:Core/Src/main.c **** /**
   3:Core/Src/main.c ****   ******************************************************************************
   4:Core/Src/main.c ****   * @file           : main.c
   5:Core/Src/main.c ****   * @brief          : Main program body
   6:Core/Src/main.c ****   ******************************************************************************
   7:Core/Src/main.c ****   * @attention
   8:Core/Src/main.c ****   *
   9:Core/Src/main.c ****   * Copyright (c) 2026 STMicroelectronics.
  10:Core/Src/main.c ****   * All rights reserved.
  11:Core/Src/main.c ****   *
  12:Core/Src/main.c ****   * This software is licensed under terms that can be found in the LICENSE file
  13:Core/Src/main.c ****   * in the root directory of this software component.
  14:Core/Src/main.c ****   * If no LICENSE file comes with this software, it is provided AS-IS.
  15:Core/Src/main.c ****   *
  16:Core/Src/main.c ****   ******************************************************************************
  17:Core/Src/main.c ****   */
  18:Core/Src/main.c **** /* USER CODE END Header */
  19:Core/Src/main.c **** /* Includes ------------------------------------------------------------------*/
  20:Core/Src/main.c **** #include "main.h"
  21:Core/Src/main.c **** 
  22:Core/Src/main.c **** /* Private includes ----------------------------------------------------------*/
  23:Core/Src/main.c **** /* USER CODE BEGIN Includes */
  24:Core/Src/main.c **** #include <stdint.h>
  25:Core/Src/main.c **** #include <string.h>
  26:Core/Src/main.c **** /* USER CODE END Includes */
  27:Core/Src/main.c **** 
  28:Core/Src/main.c **** /* Private typedef -----------------------------------------------------------*/
  29:Core/Src/main.c **** /* USER CODE BEGIN PTD */
  30:Core/Src/main.c **** 
ARM GAS  C:\Users\bulli\AppData\Local\Temp\ccMLKjFn.s 			page 2


  31:Core/Src/main.c **** /* USER CODE END PTD */
  32:Core/Src/main.c **** 
  33:Core/Src/main.c **** /* Private define ------------------------------------------------------------*/
  34:Core/Src/main.c **** /* USER CODE BEGIN PD */
  35:Core/Src/main.c **** #define FRAME_LEN        11
  36:Core/Src/main.c **** #define SYNC1            0xAA
  37:Core/Src/main.c **** #define SYNC2            0x55
  38:Core/Src/main.c **** #define RINGBUF_SIZE     64
  39:Core/Src/main.c **** #define FAILSAFE_MS      200
  40:Core/Src/main.c **** #define FAILSAFE_CENTER  1024
  41:Core/Src/main.c **** #define HEARTBEAT_MS     250      /* 2 Hz toggle on lost link */
  42:Core/Src/main.c **** 
  43:Core/Src/main.c **** /* PWM brake servo — TIM2 CH1 (PA0), µs direct */
  44:Core/Src/main.c **** /* Physical inversion: 1900µs = rod extended = brake OFF, 1100µs = rod retracted = brake ON */
  45:Core/Src/main.c **** #define PWM_SERVO_MIN_US      1100     /* full brake ON */
  46:Core/Src/main.c **** #define PWM_SERVO_MAX_US      1900     /* brake OFF */
  47:Core/Src/main.c **** #define PWM_FAILSAFE_US       1150     /* failsafe → brake ON */
  48:Core/Src/main.c **** 
  49:Core/Src/main.c **** /* PWM gear servo — TIM2 CH2 (PA1), µs direct */
  50:Core/Src/main.c **** #define PWM_GEAR_MIN_US       1100
  51:Core/Src/main.c **** #define PWM_GEAR_MAX_US       1900
  52:Core/Src/main.c **** #define PWM_GEAR_FAILSAFE_US  1500     /* failsafe → neutral */
  53:Core/Src/main.c **** 
  54:Core/Src/main.c **** #define PWM_PERIOD_US    20000    /* 50 Hz = 20ms period */
  55:Core/Src/main.c **** #define PWM_MAX_CCR      999      /* TIM2 counter period */
  56:Core/Src/main.c **** /* USER CODE END PD */
  57:Core/Src/main.c **** 
  58:Core/Src/main.c **** /* Private macro -------------------------------------------------------------*/
  59:Core/Src/main.c **** /* USER CODE BEGIN PM */
  60:Core/Src/main.c **** 
  61:Core/Src/main.c **** /* USER CODE END PM */
  62:Core/Src/main.c **** 
  63:Core/Src/main.c **** /* Private variables ---------------------------------------------------------*/
  64:Core/Src/main.c **** TIM_HandleTypeDef htim2;
  65:Core/Src/main.c **** 
  66:Core/Src/main.c **** UART_HandleTypeDef huart2;
  67:Core/Src/main.c **** 
  68:Core/Src/main.c **** /* USER CODE BEGIN PV */
  69:Core/Src/main.c **** /* ISR single-byte landing spot */
  70:Core/Src/main.c **** static uint8_t rx_byte;
  71:Core/Src/main.c **** 
  72:Core/Src/main.c **** /* SPSC ring buffer: ISR writes head, main reads tail — no lock needed */
  73:Core/Src/main.c **** static volatile uint8_t  rb_buf[RINGBUF_SIZE];
  74:Core/Src/main.c **** static volatile uint16_t rb_head = 0;
  75:Core/Src/main.c **** static volatile uint16_t rb_tail = 0;
  76:Core/Src/main.c **** 
  77:Core/Src/main.c **** typedef struct {
  78:Core/Src/main.c ****     uint16_t ch1, ch2, ch3, ch4;
  79:Core/Src/main.c ****     uint32_t last_frame_tick;
  80:Core/Src/main.c ****     uint8_t  link_ok;
  81:Core/Src/main.c **** } rc_state_t;
  82:Core/Src/main.c **** 
  83:Core/Src/main.c **** static rc_state_t rc = {
  84:Core/Src/main.c ****     .ch1 = PWM_FAILSAFE_US, .ch2 = FAILSAFE_CENTER,
  85:Core/Src/main.c ****     .ch3 = PWM_GEAR_FAILSAFE_US, .ch4 = FAILSAFE_CENTER,
  86:Core/Src/main.c ****     .last_frame_tick = 0, .link_ok = 0
  87:Core/Src/main.c **** };
ARM GAS  C:\Users\bulli\AppData\Local\Temp\ccMLKjFn.s 			page 3


  88:Core/Src/main.c **** 
  89:Core/Src/main.c **** /* Parser state */
  90:Core/Src/main.c **** typedef enum {
  91:Core/Src/main.c ****     PS_SYNC1 = 0,   /* hunting for 0xAA                       */
  92:Core/Src/main.c ****     PS_SYNC2,       /* got 0xAA, expect 0x55                  */
  93:Core/Src/main.c ****     PS_PAYLOAD      /* collecting 9 bytes: 4*u16 LE + CRC8    */
  94:Core/Src/main.c **** } parser_state_t;
  95:Core/Src/main.c **** 
  96:Core/Src/main.c **** static parser_state_t pstate = PS_SYNC1;
  97:Core/Src/main.c **** static uint8_t        payload[FRAME_LEN - 2];
  98:Core/Src/main.c **** static uint8_t        pidx = 0;
  99:Core/Src/main.c **** /* USER CODE END PV */
 100:Core/Src/main.c **** 
 101:Core/Src/main.c **** /* Private function prototypes -----------------------------------------------*/
 102:Core/Src/main.c **** void SystemClock_Config(void);
 103:Core/Src/main.c **** static void MX_GPIO_Init(void);
 104:Core/Src/main.c **** static void MX_USART2_UART_Init(void);
 105:Core/Src/main.c **** static void MX_TIM2_Init(void);
 106:Core/Src/main.c **** /* USER CODE BEGIN PFP */
 107:Core/Src/main.c **** static uint8_t crc8_dallas(const uint8_t *data, uint8_t len);
 108:Core/Src/main.c **** static void    rb_push(uint8_t b);
 109:Core/Src/main.c **** static int     rb_pop(uint8_t *b);
 110:Core/Src/main.c **** static void    parser_feed(uint8_t b);
 111:Core/Src/main.c **** static void    update_servo_pwm(uint16_t pulse_us);
 112:Core/Src/main.c **** static void    update_gear_pwm(uint16_t pulse_us);
 113:Core/Src/main.c **** /* USER CODE END PFP */
 114:Core/Src/main.c **** 
 115:Core/Src/main.c **** /* Private user code ---------------------------------------------------------*/
 116:Core/Src/main.c **** /* USER CODE BEGIN 0 */
 117:Core/Src/main.c **** 
 118:Core/Src/main.c **** /* CRC8 Dallas/Maxim — reflected poly 0x8C, init 0x00, no final xor. */
 119:Core/Src/main.c **** static uint8_t crc8_dallas(const uint8_t *data, uint8_t len) {
  29              		.loc 1 119 62 view -0
  30              		.cfi_startproc
  31              		@ args = 0, pretend = 0, frame = 0
  32              		@ frame_needed = 0, uses_anonymous_args = 0
  33              		.loc 1 119 62 is_stmt 0 view .LVU1
  34 0000 10B5     		push	{r4, lr}
  35              		.cfi_def_cfa_offset 8
  36              		.cfi_offset 4, -8
  37              		.cfi_offset 14, -4
  38 0002 0446     		mov	r4, r0
 120:Core/Src/main.c ****     uint8_t crc = 0x00;
  39              		.loc 1 120 5 is_stmt 1 view .LVU2
  40              	.LVL1:
 121:Core/Src/main.c ****     for (uint8_t i = 0; i < len; i++) {
  41              		.loc 1 121 5 view .LVU3
  42              	.LBB4:
  43              		.loc 1 121 10 view .LVU4
  44              		.loc 1 121 18 is_stmt 0 view .LVU5
  45 0004 4FF0000E 		mov	lr, #0
  46              	.LBE4:
 120:Core/Src/main.c ****     uint8_t crc = 0x00;
  47              		.loc 1 120 13 view .LVU6
  48 0008 7046     		mov	r0, lr
  49              	.LVL2:
  50              	.LBB11:
ARM GAS  C:\Users\bulli\AppData\Local\Temp\ccMLKjFn.s 			page 4


  51              		.loc 1 121 5 view .LVU7
  52 000a 15E0     		b	.L2
  53              	.LVL3:
  54              	.L4:
  55              	.LBB5:
  56              	.LBB6:
  57              	.LBB7:
 122:Core/Src/main.c ****         uint8_t b = data[i];
 123:Core/Src/main.c ****         for (uint8_t j = 0; j < 8; j++) {
 124:Core/Src/main.c ****             uint8_t mix = (crc ^ b) & 0x01;
 125:Core/Src/main.c ****             crc >>= 1;
 126:Core/Src/main.c ****             if (mix) crc ^= 0x8C;
 127:Core/Src/main.c ****             b >>= 1;
  58              		.loc 1 127 13 is_stmt 1 view .LVU8
  59              		.loc 1 127 15 is_stmt 0 view .LVU9
  60 000c 4FEA5C0C 		lsr	ip, ip, #1
  61              	.LVL4:
  62              		.loc 1 127 15 view .LVU10
  63              	.LBE7:
 123:Core/Src/main.c ****             uint8_t mix = (crc ^ b) & 0x01;
  64              		.loc 1 123 37 is_stmt 1 discriminator 2 view .LVU11
  65 0010 0133     		adds	r3, r3, #1
  66              	.LVL5:
 123:Core/Src/main.c ****             uint8_t mix = (crc ^ b) & 0x01;
  67              		.loc 1 123 37 is_stmt 0 discriminator 2 view .LVU12
  68 0012 DBB2     		uxtb	r3, r3
  69              	.LVL6:
  70              	.L3:
 123:Core/Src/main.c ****             uint8_t mix = (crc ^ b) & 0x01;
  71              		.loc 1 123 31 is_stmt 1 discriminator 1 view .LVU13
  72 0014 072B     		cmp	r3, #7
  73 0016 0BD8     		bhi	.L8
  74              	.LBB8:
 124:Core/Src/main.c ****             crc >>= 1;
  75              		.loc 1 124 13 view .LVU14
 124:Core/Src/main.c ****             crc >>= 1;
  76              		.loc 1 124 37 is_stmt 0 view .LVU15
  77 0018 80EA0C02 		eor	r2, r0, ip
 125:Core/Src/main.c ****             if (mix) crc ^= 0x8C;
  78              		.loc 1 125 13 is_stmt 1 view .LVU16
 126:Core/Src/main.c ****             b >>= 1;
  79              		.loc 1 126 13 view .LVU17
 126:Core/Src/main.c ****             b >>= 1;
  80              		.loc 1 126 16 is_stmt 0 view .LVU18
  81 001c 12F0010F 		tst	r2, #1
  82 0020 4FEA5000 		lsr	r0, r0, #1
  83              	.LVL7:
 126:Core/Src/main.c ****             b >>= 1;
  84              		.loc 1 126 16 view .LVU19
  85 0024 F2D0     		beq	.L4
 126:Core/Src/main.c ****             b >>= 1;
  86              		.loc 1 126 22 is_stmt 1 discriminator 1 view .LVU20
 126:Core/Src/main.c ****             b >>= 1;
  87              		.loc 1 126 26 is_stmt 0 discriminator 1 view .LVU21
  88 0026 80F07300 		eor	r0, r0, #115
  89 002a C043     		mvns	r0, r0
  90 002c C0B2     		uxtb	r0, r0
ARM GAS  C:\Users\bulli\AppData\Local\Temp\ccMLKjFn.s 			page 5


  91 002e EDE7     		b	.L4
  92              	.LVL8:
  93              	.L8:
 126:Core/Src/main.c ****             b >>= 1;
  94              		.loc 1 126 26 discriminator 1 view .LVU22
  95              	.LBE8:
  96              	.LBE6:
  97              	.LBE5:
 121:Core/Src/main.c ****         uint8_t b = data[i];
  98              		.loc 1 121 35 is_stmt 1 discriminator 2 view .LVU23
  99 0030 0EF1010E 		add	lr, lr, #1
 100              	.LVL9:
 121:Core/Src/main.c ****         uint8_t b = data[i];
 101              		.loc 1 121 35 is_stmt 0 discriminator 2 view .LVU24
 102 0034 5FFA8EFE 		uxtb	lr, lr
 103              	.LVL10:
 104              	.L2:
 121:Core/Src/main.c ****         uint8_t b = data[i];
 105              		.loc 1 121 27 is_stmt 1 discriminator 1 view .LVU25
 106 0038 8E45     		cmp	lr, r1
 107 003a 03D2     		bcs	.L9
 108              	.LBB10:
 122:Core/Src/main.c ****         for (uint8_t j = 0; j < 8; j++) {
 109              		.loc 1 122 9 view .LVU26
 122:Core/Src/main.c ****         for (uint8_t j = 0; j < 8; j++) {
 110              		.loc 1 122 17 is_stmt 0 view .LVU27
 111 003c 14F80EC0 		ldrb	ip, [r4, lr]	@ zero_extendqisi2
 112              	.LVL11:
 123:Core/Src/main.c ****             uint8_t mix = (crc ^ b) & 0x01;
 113              		.loc 1 123 9 is_stmt 1 view .LVU28
 114              	.LBB9:
 123:Core/Src/main.c ****             uint8_t mix = (crc ^ b) & 0x01;
 115              		.loc 1 123 14 view .LVU29
 123:Core/Src/main.c ****             uint8_t mix = (crc ^ b) & 0x01;
 116              		.loc 1 123 22 is_stmt 0 view .LVU30
 117 0040 0023     		movs	r3, #0
 123:Core/Src/main.c ****             uint8_t mix = (crc ^ b) & 0x01;
 118              		.loc 1 123 9 view .LVU31
 119 0042 E7E7     		b	.L3
 120              	.LVL12:
 121              	.L9:
 123:Core/Src/main.c ****             uint8_t mix = (crc ^ b) & 0x01;
 122              		.loc 1 123 9 view .LVU32
 123              	.LBE9:
 124              	.LBE10:
 125              	.LBE11:
 128:Core/Src/main.c ****         }
 129:Core/Src/main.c ****     }
 130:Core/Src/main.c ****     return crc;
 126              		.loc 1 130 5 is_stmt 1 view .LVU33
 131:Core/Src/main.c **** }
 127              		.loc 1 131 1 is_stmt 0 view .LVU34
 128 0044 10BD     		pop	{r4, pc}
 129              		.loc 1 131 1 view .LVU35
 130              		.cfi_endproc
 131              	.LFE134:
 133              		.section	.text.rb_push,"ax",%progbits
ARM GAS  C:\Users\bulli\AppData\Local\Temp\ccMLKjFn.s 			page 6


 134              		.align	1
 135              		.syntax unified
 136              		.thumb
 137              		.thumb_func
 139              	rb_push:
 140              	.LVL13:
 141              	.LFB135:
 132:Core/Src/main.c **** 
 133:Core/Src/main.c **** /* Writer — called only from ISR. Drops byte on overflow. */
 134:Core/Src/main.c **** static void rb_push(uint8_t b) {
 142              		.loc 1 134 32 is_stmt 1 view -0
 143              		.cfi_startproc
 144              		@ args = 0, pretend = 0, frame = 0
 145              		@ frame_needed = 0, uses_anonymous_args = 0
 146              		@ link register save eliminated.
 135:Core/Src/main.c ****     uint16_t next = (uint16_t)((rb_head + 1) % RINGBUF_SIZE);
 147              		.loc 1 135 5 view .LVU37
 148              		.loc 1 135 41 is_stmt 0 view .LVU38
 149 0000 0C4B     		ldr	r3, .L12
 150 0002 1B88     		ldrh	r3, [r3]
 151 0004 9BB2     		uxth	r3, r3
 152 0006 0133     		adds	r3, r3, #1
 153              		.loc 1 135 46 view .LVU39
 154 0008 5A42     		rsbs	r2, r3, #0
 155 000a 03F03F03 		and	r3, r3, #63
 156 000e 02F03F02 		and	r2, r2, #63
 157 0012 58BF     		it	pl
 158 0014 5342     		rsbpl	r3, r2, #0
 159              		.loc 1 135 14 view .LVU40
 160 0016 9BB2     		uxth	r3, r3
 161              	.LVL14:
 136:Core/Src/main.c ****     if (next != rb_tail) {
 162              		.loc 1 136 5 is_stmt 1 view .LVU41
 163              		.loc 1 136 14 is_stmt 0 view .LVU42
 164 0018 074A     		ldr	r2, .L12+4
 165 001a 1288     		ldrh	r2, [r2]
 166 001c 92B2     		uxth	r2, r2
 167              		.loc 1 136 8 view .LVU43
 168 001e 9A42     		cmp	r2, r3
 169 0020 07D0     		beq	.L10
 137:Core/Src/main.c ****         rb_buf[rb_head] = b;
 170              		.loc 1 137 9 is_stmt 1 view .LVU44
 171              		.loc 1 137 15 is_stmt 0 view .LVU45
 172 0022 0449     		ldr	r1, .L12
 173 0024 0A88     		ldrh	r2, [r1]
 174 0026 92B2     		uxth	r2, r2
 175              		.loc 1 137 25 view .LVU46
 176 0028 DFF810C0 		ldr	ip, .L12+8
 177 002c 0CF80200 		strb	r0, [ip, r2]
 138:Core/Src/main.c ****         rb_head = next;
 178              		.loc 1 138 9 is_stmt 1 view .LVU47
 179              		.loc 1 138 17 is_stmt 0 view .LVU48
 180 0030 0B80     		strh	r3, [r1]	@ movhi
 181              	.L10:
 139:Core/Src/main.c ****     }
 140:Core/Src/main.c **** }
 182              		.loc 1 140 1 view .LVU49
ARM GAS  C:\Users\bulli\AppData\Local\Temp\ccMLKjFn.s 			page 7


 183 0032 7047     		bx	lr
 184              	.L13:
 185              		.align	2
 186              	.L12:
 187 0034 00000000 		.word	rb_head
 188 0038 00000000 		.word	rb_tail
 189 003c 00000000 		.word	rb_buf
 190              		.cfi_endproc
 191              	.LFE135:
 193              		.section	.text.rb_pop,"ax",%progbits
 194              		.align	1
 195              		.syntax unified
 196              		.thumb
 197              		.thumb_func
 199              	rb_pop:
 200              	.LVL15:
 201              	.LFB136:
 141:Core/Src/main.c **** 
 142:Core/Src/main.c **** /* Reader — called only from main loop. */
 143:Core/Src/main.c **** static int rb_pop(uint8_t *b) {
 202              		.loc 1 143 31 is_stmt 1 view -0
 203              		.cfi_startproc
 204              		@ args = 0, pretend = 0, frame = 0
 205              		@ frame_needed = 0, uses_anonymous_args = 0
 206              		@ link register save eliminated.
 144:Core/Src/main.c ****     if (rb_head == rb_tail) return 0;
 207              		.loc 1 144 5 view .LVU51
 208              		.loc 1 144 17 is_stmt 0 view .LVU52
 209 0000 0E4B     		ldr	r3, .L17
 210 0002 1A88     		ldrh	r2, [r3]
 211 0004 92B2     		uxth	r2, r2
 212 0006 0E4B     		ldr	r3, .L17+4
 213 0008 1B88     		ldrh	r3, [r3]
 214 000a 9BB2     		uxth	r3, r3
 215              		.loc 1 144 8 view .LVU53
 216 000c 9A42     		cmp	r2, r3
 217 000e 13D0     		beq	.L16
 145:Core/Src/main.c ****     *b = rb_buf[rb_tail];
 218              		.loc 1 145 5 is_stmt 1 view .LVU54
 219              		.loc 1 145 16 is_stmt 0 view .LVU55
 220 0010 0B4A     		ldr	r2, .L17+4
 221 0012 1388     		ldrh	r3, [r2]
 222 0014 9BB2     		uxth	r3, r3
 223 0016 0B49     		ldr	r1, .L17+8
 224 0018 CB5C     		ldrb	r3, [r1, r3]	@ zero_extendqisi2
 225              		.loc 1 145 8 view .LVU56
 226 001a 0370     		strb	r3, [r0]
 146:Core/Src/main.c ****     rb_tail = (uint16_t)((rb_tail + 1) % RINGBUF_SIZE);
 227              		.loc 1 146 5 is_stmt 1 view .LVU57
 228              		.loc 1 146 35 is_stmt 0 view .LVU58
 229 001c 1388     		ldrh	r3, [r2]
 230 001e 9BB2     		uxth	r3, r3
 231 0020 0133     		adds	r3, r3, #1
 232              		.loc 1 146 40 view .LVU59
 233 0022 5942     		rsbs	r1, r3, #0
 234 0024 03F03F03 		and	r3, r3, #63
 235 0028 01F03F01 		and	r1, r1, #63
ARM GAS  C:\Users\bulli\AppData\Local\Temp\ccMLKjFn.s 			page 8


 236 002c 58BF     		it	pl
 237 002e 4B42     		rsbpl	r3, r1, #0
 238              		.loc 1 146 15 view .LVU60
 239 0030 9BB2     		uxth	r3, r3
 240              		.loc 1 146 13 view .LVU61
 241 0032 1380     		strh	r3, [r2]	@ movhi
 147:Core/Src/main.c ****     return 1;
 242              		.loc 1 147 5 is_stmt 1 view .LVU62
 243              		.loc 1 147 12 is_stmt 0 view .LVU63
 244 0034 0120     		movs	r0, #1
 245              	.LVL16:
 246              		.loc 1 147 12 view .LVU64
 247 0036 7047     		bx	lr
 248              	.LVL17:
 249              	.L16:
 144:Core/Src/main.c ****     *b = rb_buf[rb_tail];
 250              		.loc 1 144 36 discriminator 1 view .LVU65
 251 0038 0020     		movs	r0, #0
 252              	.LVL18:
 148:Core/Src/main.c **** }
 253              		.loc 1 148 1 view .LVU66
 254 003a 7047     		bx	lr
 255              	.L18:
 256              		.align	2
 257              	.L17:
 258 003c 00000000 		.word	rb_head
 259 0040 00000000 		.word	rb_tail
 260 0044 00000000 		.word	rb_buf
 261              		.cfi_endproc
 262              	.LFE136:
 264              		.section	.text.update_servo_pwm,"ax",%progbits
 265              		.align	1
 266              		.syntax unified
 267              		.thumb
 268              		.thumb_func
 270              	update_servo_pwm:
 271              	.LVL19:
 272              	.LFB138:
 149:Core/Src/main.c **** 
 150:Core/Src/main.c **** /*
 151:Core/Src/main.c ****  * Resynchronizing frame parser.
 152:Core/Src/main.c ****  *
 153:Core/Src/main.c ****  *   PS_SYNC1   : hunt for 0xAA. Anything else is discarded.
 154:Core/Src/main.c ****  *   PS_SYNC2   : saw 0xAA, expect 0x55. If another 0xAA arrives, stay here
 155:Core/Src/main.c ****  *                (it might be the real start). Any other byte -> hunt again.
 156:Core/Src/main.c ****  *   PS_PAYLOAD : collect 9 bytes. When full, verify CRC over the first 8.
 157:Core/Src/main.c ****  *                On success, update rc and mark link_ok. On CRC failure,
 158:Core/Src/main.c ****  *                discard and resync — a spurious 0xAA 0x55 only costs one frame.
 159:Core/Src/main.c ****  */
 160:Core/Src/main.c **** static void parser_feed(uint8_t b) {
 161:Core/Src/main.c ****     switch (pstate) {
 162:Core/Src/main.c ****     case PS_SYNC1:
 163:Core/Src/main.c ****         if (b == SYNC1) pstate = PS_SYNC2;
 164:Core/Src/main.c ****         break;
 165:Core/Src/main.c **** 
 166:Core/Src/main.c ****     case PS_SYNC2:
 167:Core/Src/main.c ****         if (b == SYNC2)      { pstate = PS_PAYLOAD; pidx = 0; }
ARM GAS  C:\Users\bulli\AppData\Local\Temp\ccMLKjFn.s 			page 9


 168:Core/Src/main.c ****         else if (b != SYNC1) { pstate = PS_SYNC1; }
 169:Core/Src/main.c ****         break;
 170:Core/Src/main.c **** 
 171:Core/Src/main.c ****     case PS_PAYLOAD:
 172:Core/Src/main.c ****         payload[pidx++] = b;
 173:Core/Src/main.c ****         if (pidx == (FRAME_LEN - 2)) {
 174:Core/Src/main.c ****             uint8_t crc_calc = crc8_dallas(payload, 8);
 175:Core/Src/main.c ****             uint8_t crc_rx   = payload[8];
 176:Core/Src/main.c ****             if (crc_calc == crc_rx) {
 177:Core/Src/main.c ****                 rc.ch1 = (uint16_t)payload[0] | ((uint16_t)payload[1] << 8);
 178:Core/Src/main.c ****                 rc.ch2 = (uint16_t)payload[2] | ((uint16_t)payload[3] << 8);
 179:Core/Src/main.c ****                 rc.ch3 = (uint16_t)payload[4] | ((uint16_t)payload[5] << 8);
 180:Core/Src/main.c ****                 rc.ch4 = (uint16_t)payload[6] | ((uint16_t)payload[7] << 8);
 181:Core/Src/main.c ****                 rc.last_frame_tick = HAL_GetTick();
 182:Core/Src/main.c ****                 rc.link_ok = 1;
 183:Core/Src/main.c ****                 update_servo_pwm(rc.ch1);
 184:Core/Src/main.c ****                 update_gear_pwm(rc.ch3);
 185:Core/Src/main.c ****             }
 186:Core/Src/main.c ****             pstate = PS_SYNC1;
 187:Core/Src/main.c ****         }
 188:Core/Src/main.c ****         break;
 189:Core/Src/main.c ****     }
 190:Core/Src/main.c **** }
 191:Core/Src/main.c **** 
 192:Core/Src/main.c **** /* CH1 value is pulse width in µs, clamped to safe brake servo range. */
 193:Core/Src/main.c **** static void update_servo_pwm(uint16_t pulse_us) {
 273              		.loc 1 193 49 is_stmt 1 view -0
 274              		.cfi_startproc
 275              		@ args = 0, pretend = 0, frame = 0
 276              		@ frame_needed = 0, uses_anonymous_args = 0
 277              		@ link register save eliminated.
 194:Core/Src/main.c ****     if (pulse_us < PWM_SERVO_MIN_US) pulse_us = PWM_SERVO_MIN_US;
 278              		.loc 1 194 5 view .LVU68
 279              		.loc 1 194 8 is_stmt 0 view .LVU69
 280 0000 40F24B43 		movw	r3, #1099
 281 0004 9842     		cmp	r0, r3
 282 0006 06D9     		bls	.L21
 195:Core/Src/main.c ****     if (pulse_us > PWM_SERVO_MAX_US) pulse_us = PWM_SERVO_MAX_US;
 283              		.loc 1 195 5 is_stmt 1 view .LVU70
 284              		.loc 1 195 8 is_stmt 0 view .LVU71
 285 0008 40F26C73 		movw	r3, #1900
 286 000c 9842     		cmp	r0, r3
 287 000e 04D9     		bls	.L20
 288              		.loc 1 195 47 discriminator 1 view .LVU72
 289 0010 40F26C70 		movw	r0, #1900
 290              	.LVL20:
 291              		.loc 1 195 47 discriminator 1 view .LVU73
 292 0014 01E0     		b	.L20
 293              	.LVL21:
 294              	.L21:
 194:Core/Src/main.c ****     if (pulse_us < PWM_SERVO_MIN_US) pulse_us = PWM_SERVO_MIN_US;
 295              		.loc 1 194 47 discriminator 1 view .LVU74
 296 0016 40F24C40 		movw	r0, #1100
 297              	.LVL22:
 298              	.L20:
 196:Core/Src/main.c ****     uint32_t ccr = (pulse_us * (PWM_MAX_CCR + 1)) / PWM_PERIOD_US;
 299              		.loc 1 196 5 is_stmt 1 view .LVU75
ARM GAS  C:\Users\bulli\AppData\Local\Temp\ccMLKjFn.s 			page 10


 300              		.loc 1 196 51 is_stmt 0 view .LVU76
 301 001a 044B     		ldr	r3, .L23
 302 001c 83FB0030 		smull	r3, r0, r3, r0
 303              	.LVL23:
 304              		.loc 1 196 51 view .LVU77
 305 0020 C010     		asrs	r0, r0, #3
 306              	.LVL24:
 197:Core/Src/main.c ****     __HAL_TIM_SET_COMPARE(&htim2, TIM_CHANNEL_1, ccr);
 307              		.loc 1 197 5 is_stmt 1 view .LVU78
 308 0022 034B     		ldr	r3, .L23+4
 309 0024 1B68     		ldr	r3, [r3]
 310 0026 5863     		str	r0, [r3, #52]
 198:Core/Src/main.c **** }
 311              		.loc 1 198 1 is_stmt 0 view .LVU79
 312 0028 7047     		bx	lr
 313              	.L24:
 314 002a 00BF     		.align	2
 315              	.L23:
 316 002c 67666666 		.word	1717986919
 317 0030 00000000 		.word	htim2
 318              		.cfi_endproc
 319              	.LFE138:
 321              		.section	.text.update_gear_pwm,"ax",%progbits
 322              		.align	1
 323              		.syntax unified
 324              		.thumb
 325              		.thumb_func
 327              	update_gear_pwm:
 328              	.LVL25:
 329              	.LFB139:
 199:Core/Src/main.c **** 
 200:Core/Src/main.c **** /* CH3 value is pulse width in µs, clamped to safe gear servo range. */
 201:Core/Src/main.c **** static void update_gear_pwm(uint16_t pulse_us) {
 330              		.loc 1 201 48 is_stmt 1 view -0
 331              		.cfi_startproc
 332              		@ args = 0, pretend = 0, frame = 0
 333              		@ frame_needed = 0, uses_anonymous_args = 0
 334              		@ link register save eliminated.
 202:Core/Src/main.c ****     if (pulse_us < PWM_GEAR_MIN_US) pulse_us = PWM_GEAR_MIN_US;
 335              		.loc 1 202 5 view .LVU81
 336              		.loc 1 202 8 is_stmt 0 view .LVU82
 337 0000 40F24B43 		movw	r3, #1099
 338 0004 9842     		cmp	r0, r3
 339 0006 06D9     		bls	.L27
 203:Core/Src/main.c ****     if (pulse_us > PWM_GEAR_MAX_US) pulse_us = PWM_GEAR_MAX_US;
 340              		.loc 1 203 5 is_stmt 1 view .LVU83
 341              		.loc 1 203 8 is_stmt 0 view .LVU84
 342 0008 40F26C73 		movw	r3, #1900
 343 000c 9842     		cmp	r0, r3
 344 000e 04D9     		bls	.L26
 345              		.loc 1 203 46 discriminator 1 view .LVU85
 346 0010 40F26C70 		movw	r0, #1900
 347              	.LVL26:
 348              		.loc 1 203 46 discriminator 1 view .LVU86
 349 0014 01E0     		b	.L26
 350              	.LVL27:
 351              	.L27:
ARM GAS  C:\Users\bulli\AppData\Local\Temp\ccMLKjFn.s 			page 11


 202:Core/Src/main.c ****     if (pulse_us < PWM_GEAR_MIN_US) pulse_us = PWM_GEAR_MIN_US;
 352              		.loc 1 202 46 discriminator 1 view .LVU87
 353 0016 40F24C40 		movw	r0, #1100
 354              	.LVL28:
 355              	.L26:
 204:Core/Src/main.c ****     uint32_t ccr = (pulse_us * (PWM_MAX_CCR + 1)) / PWM_PERIOD_US;
 356              		.loc 1 204 5 is_stmt 1 view .LVU88
 357              		.loc 1 204 51 is_stmt 0 view .LVU89
 358 001a 044B     		ldr	r3, .L29
 359 001c 83FB0030 		smull	r3, r0, r3, r0
 360              	.LVL29:
 361              		.loc 1 204 51 view .LVU90
 362 0020 C010     		asrs	r0, r0, #3
 363              	.LVL30:
 205:Core/Src/main.c ****     __HAL_TIM_SET_COMPARE(&htim2, TIM_CHANNEL_2, ccr);
 364              		.loc 1 205 5 is_stmt 1 view .LVU91
 365 0022 034B     		ldr	r3, .L29+4
 366 0024 1B68     		ldr	r3, [r3]
 367 0026 9863     		str	r0, [r3, #56]
 206:Core/Src/main.c **** }
 368              		.loc 1 206 1 is_stmt 0 view .LVU92
 369 0028 7047     		bx	lr
 370              	.L30:
 371 002a 00BF     		.align	2
 372              	.L29:
 373 002c 67666666 		.word	1717986919
 374 0030 00000000 		.word	htim2
 375              		.cfi_endproc
 376              	.LFE139:
 378              		.section	.text.parser_feed,"ax",%progbits
 379              		.align	1
 380              		.syntax unified
 381              		.thumb
 382              		.thumb_func
 384              	parser_feed:
 385              	.LVL31:
 386              	.LFB137:
 160:Core/Src/main.c ****     switch (pstate) {
 387              		.loc 1 160 36 is_stmt 1 view -0
 388              		.cfi_startproc
 389              		@ args = 0, pretend = 0, frame = 0
 390              		@ frame_needed = 0, uses_anonymous_args = 0
 161:Core/Src/main.c ****     case PS_SYNC1:
 391              		.loc 1 161 5 view .LVU94
 392 0000 2A4B     		ldr	r3, .L44
 393 0002 1B78     		ldrb	r3, [r3]	@ zero_extendqisi2
 394 0004 012B     		cmp	r3, #1
 395 0006 09D0     		beq	.L32
 396 0008 022B     		cmp	r3, #2
 397 000a 16D0     		beq	.L33
 398 000c 0BB9     		cbnz	r3, .L38
 163:Core/Src/main.c ****         break;
 399              		.loc 1 163 9 view .LVU95
 163:Core/Src/main.c ****         break;
 400              		.loc 1 163 12 is_stmt 0 view .LVU96
 401 000e AA28     		cmp	r0, #170
 402 0010 00D0     		beq	.L41
ARM GAS  C:\Users\bulli\AppData\Local\Temp\ccMLKjFn.s 			page 12


 403              	.L38:
 404 0012 7047     		bx	lr
 405              	.L41:
 163:Core/Src/main.c ****         break;
 406              		.loc 1 163 25 is_stmt 1 discriminator 1 view .LVU97
 163:Core/Src/main.c ****         break;
 407              		.loc 1 163 32 is_stmt 0 discriminator 1 view .LVU98
 408 0014 254B     		ldr	r3, .L44
 409 0016 0122     		movs	r2, #1
 410 0018 1A70     		strb	r2, [r3]
 411 001a 7047     		bx	lr
 412              	.L32:
 167:Core/Src/main.c ****         else if (b != SYNC1) { pstate = PS_SYNC1; }
 413              		.loc 1 167 9 is_stmt 1 view .LVU99
 167:Core/Src/main.c ****         else if (b != SYNC1) { pstate = PS_SYNC1; }
 414              		.loc 1 167 12 is_stmt 0 view .LVU100
 415 001c 5528     		cmp	r0, #85
 416 001e 05D0     		beq	.L42
 168:Core/Src/main.c ****         break;
 417              		.loc 1 168 14 is_stmt 1 view .LVU101
 168:Core/Src/main.c ****         break;
 418              		.loc 1 168 17 is_stmt 0 view .LVU102
 419 0020 AA28     		cmp	r0, #170
 420 0022 F6D0     		beq	.L38
 168:Core/Src/main.c ****         break;
 421              		.loc 1 168 32 is_stmt 1 discriminator 1 view .LVU103
 168:Core/Src/main.c ****         break;
 422              		.loc 1 168 39 is_stmt 0 discriminator 1 view .LVU104
 423 0024 214B     		ldr	r3, .L44
 424 0026 0022     		movs	r2, #0
 425 0028 1A70     		strb	r2, [r3]
 426 002a 7047     		bx	lr
 427              	.L42:
 167:Core/Src/main.c ****         else if (b != SYNC1) { pstate = PS_SYNC1; }
 428              		.loc 1 167 32 is_stmt 1 discriminator 1 view .LVU105
 167:Core/Src/main.c ****         else if (b != SYNC1) { pstate = PS_SYNC1; }
 429              		.loc 1 167 39 is_stmt 0 discriminator 1 view .LVU106
 430 002c 1F4B     		ldr	r3, .L44
 431 002e 0222     		movs	r2, #2
 432 0030 1A70     		strb	r2, [r3]
 167:Core/Src/main.c ****         else if (b != SYNC1) { pstate = PS_SYNC1; }
 433              		.loc 1 167 53 is_stmt 1 view .LVU107
 167:Core/Src/main.c ****         else if (b != SYNC1) { pstate = PS_SYNC1; }
 434              		.loc 1 167 58 is_stmt 0 discriminator 1 view .LVU108
 435 0032 1F4B     		ldr	r3, .L44+4
 436 0034 0022     		movs	r2, #0
 437 0036 1A70     		strb	r2, [r3]
 438 0038 7047     		bx	lr
 439              	.L33:
 172:Core/Src/main.c ****         if (pidx == (FRAME_LEN - 2)) {
 440              		.loc 1 172 9 is_stmt 1 view .LVU109
 172:Core/Src/main.c ****         if (pidx == (FRAME_LEN - 2)) {
 441              		.loc 1 172 21 is_stmt 0 view .LVU110
 442 003a 1D49     		ldr	r1, .L44+4
 443 003c 0A78     		ldrb	r2, [r1]	@ zero_extendqisi2
 444 003e 531C     		adds	r3, r2, #1
 445 0040 DBB2     		uxtb	r3, r3
ARM GAS  C:\Users\bulli\AppData\Local\Temp\ccMLKjFn.s 			page 13


 446 0042 0B70     		strb	r3, [r1]
 172:Core/Src/main.c ****         if (pidx == (FRAME_LEN - 2)) {
 447              		.loc 1 172 25 view .LVU111
 448 0044 1B49     		ldr	r1, .L44+8
 449 0046 8854     		strb	r0, [r1, r2]
 173:Core/Src/main.c ****             uint8_t crc_calc = crc8_dallas(payload, 8);
 450              		.loc 1 173 9 is_stmt 1 view .LVU112
 173:Core/Src/main.c ****             uint8_t crc_calc = crc8_dallas(payload, 8);
 451              		.loc 1 173 12 is_stmt 0 view .LVU113
 452 0048 092B     		cmp	r3, #9
 453 004a E2D1     		bne	.L38
 160:Core/Src/main.c ****     switch (pstate) {
 454              		.loc 1 160 36 view .LVU114
 455 004c 10B5     		push	{r4, lr}
 456              		.cfi_def_cfa_offset 8
 457              		.cfi_offset 4, -8
 458              		.cfi_offset 14, -4
 459              	.LBB12:
 174:Core/Src/main.c ****             uint8_t crc_rx   = payload[8];
 460              		.loc 1 174 13 is_stmt 1 view .LVU115
 174:Core/Src/main.c ****             uint8_t crc_rx   = payload[8];
 461              		.loc 1 174 32 is_stmt 0 view .LVU116
 462 004e 0821     		movs	r1, #8
 463 0050 1848     		ldr	r0, .L44+8
 464              	.LVL32:
 174:Core/Src/main.c ****             uint8_t crc_rx   = payload[8];
 465              		.loc 1 174 32 view .LVU117
 466 0052 FFF7FEFF 		bl	crc8_dallas
 467              	.LVL33:
 175:Core/Src/main.c ****             if (crc_calc == crc_rx) {
 468              		.loc 1 175 13 is_stmt 1 view .LVU118
 175:Core/Src/main.c ****             if (crc_calc == crc_rx) {
 469              		.loc 1 175 21 is_stmt 0 view .LVU119
 470 0056 174B     		ldr	r3, .L44+8
 471 0058 1B7A     		ldrb	r3, [r3, #8]	@ zero_extendqisi2
 472              	.LVL34:
 176:Core/Src/main.c ****                 rc.ch1 = (uint16_t)payload[0] | ((uint16_t)payload[1] << 8);
 473              		.loc 1 176 13 is_stmt 1 view .LVU120
 176:Core/Src/main.c ****                 rc.ch1 = (uint16_t)payload[0] | ((uint16_t)payload[1] << 8);
 474              		.loc 1 176 16 is_stmt 0 view .LVU121
 475 005a 9842     		cmp	r0, r3
 476 005c 03D0     		beq	.L43
 477              	.LVL35:
 478              	.L36:
 186:Core/Src/main.c ****         }
 479              		.loc 1 186 13 is_stmt 1 view .LVU122
 186:Core/Src/main.c ****         }
 480              		.loc 1 186 20 is_stmt 0 view .LVU123
 481 005e 134B     		ldr	r3, .L44
 482 0060 0022     		movs	r2, #0
 483 0062 1A70     		strb	r2, [r3]
 484              	.LBE12:
 190:Core/Src/main.c **** 
 485              		.loc 1 190 1 view .LVU124
 486 0064 10BD     		pop	{r4, pc}
 487              	.LVL36:
 488              	.L43:
ARM GAS  C:\Users\bulli\AppData\Local\Temp\ccMLKjFn.s 			page 14


 489              	.LBB13:
 177:Core/Src/main.c ****                 rc.ch2 = (uint16_t)payload[2] | ((uint16_t)payload[3] << 8);
 490              		.loc 1 177 17 is_stmt 1 view .LVU125
 177:Core/Src/main.c ****                 rc.ch2 = (uint16_t)payload[2] | ((uint16_t)payload[3] << 8);
 491              		.loc 1 177 43 is_stmt 0 view .LVU126
 492 0066 134B     		ldr	r3, .L44+8
 493 0068 1A78     		ldrb	r2, [r3]	@ zero_extendqisi2
 177:Core/Src/main.c ****                 rc.ch2 = (uint16_t)payload[2] | ((uint16_t)payload[3] << 8);
 494              		.loc 1 177 67 view .LVU127
 495 006a 5978     		ldrb	r1, [r3, #1]	@ zero_extendqisi2
 177:Core/Src/main.c ****                 rc.ch2 = (uint16_t)payload[2] | ((uint16_t)payload[3] << 8);
 496              		.loc 1 177 47 view .LVU128
 497 006c 42EA0122 		orr	r2, r2, r1, lsl #8
 177:Core/Src/main.c ****                 rc.ch2 = (uint16_t)payload[2] | ((uint16_t)payload[3] << 8);
 498              		.loc 1 177 24 view .LVU129
 499 0070 1148     		ldr	r0, .L44+12
 500              	.LVL37:
 177:Core/Src/main.c ****                 rc.ch2 = (uint16_t)payload[2] | ((uint16_t)payload[3] << 8);
 501              		.loc 1 177 24 view .LVU130
 502 0072 0280     		strh	r2, [r0]	@ movhi
 178:Core/Src/main.c ****                 rc.ch3 = (uint16_t)payload[4] | ((uint16_t)payload[5] << 8);
 503              		.loc 1 178 17 is_stmt 1 view .LVU131
 178:Core/Src/main.c ****                 rc.ch3 = (uint16_t)payload[4] | ((uint16_t)payload[5] << 8);
 504              		.loc 1 178 43 is_stmt 0 view .LVU132
 505 0074 9A78     		ldrb	r2, [r3, #2]	@ zero_extendqisi2
 178:Core/Src/main.c ****                 rc.ch3 = (uint16_t)payload[4] | ((uint16_t)payload[5] << 8);
 506              		.loc 1 178 67 view .LVU133
 507 0076 D978     		ldrb	r1, [r3, #3]	@ zero_extendqisi2
 178:Core/Src/main.c ****                 rc.ch3 = (uint16_t)payload[4] | ((uint16_t)payload[5] << 8);
 508              		.loc 1 178 47 view .LVU134
 509 0078 42EA0122 		orr	r2, r2, r1, lsl #8
 178:Core/Src/main.c ****                 rc.ch3 = (uint16_t)payload[4] | ((uint16_t)payload[5] << 8);
 510              		.loc 1 178 24 view .LVU135
 511 007c 4280     		strh	r2, [r0, #2]	@ movhi
 179:Core/Src/main.c ****                 rc.ch4 = (uint16_t)payload[6] | ((uint16_t)payload[7] << 8);
 512              		.loc 1 179 17 is_stmt 1 view .LVU136
 179:Core/Src/main.c ****                 rc.ch4 = (uint16_t)payload[6] | ((uint16_t)payload[7] << 8);
 513              		.loc 1 179 43 is_stmt 0 view .LVU137
 514 007e 1A79     		ldrb	r2, [r3, #4]	@ zero_extendqisi2
 179:Core/Src/main.c ****                 rc.ch4 = (uint16_t)payload[6] | ((uint16_t)payload[7] << 8);
 515              		.loc 1 179 67 view .LVU138
 516 0080 5979     		ldrb	r1, [r3, #5]	@ zero_extendqisi2
 179:Core/Src/main.c ****                 rc.ch4 = (uint16_t)payload[6] | ((uint16_t)payload[7] << 8);
 517              		.loc 1 179 47 view .LVU139
 518 0082 42EA0122 		orr	r2, r2, r1, lsl #8
 179:Core/Src/main.c ****                 rc.ch4 = (uint16_t)payload[6] | ((uint16_t)payload[7] << 8);
 519              		.loc 1 179 24 view .LVU140
 520 0086 8280     		strh	r2, [r0, #4]	@ movhi
 180:Core/Src/main.c ****                 rc.last_frame_tick = HAL_GetTick();
 521              		.loc 1 180 17 is_stmt 1 view .LVU141
 180:Core/Src/main.c ****                 rc.last_frame_tick = HAL_GetTick();
 522              		.loc 1 180 43 is_stmt 0 view .LVU142
 523 0088 9A79     		ldrb	r2, [r3, #6]	@ zero_extendqisi2
 180:Core/Src/main.c ****                 rc.last_frame_tick = HAL_GetTick();
 524              		.loc 1 180 67 view .LVU143
 525 008a DB79     		ldrb	r3, [r3, #7]	@ zero_extendqisi2
 180:Core/Src/main.c ****                 rc.last_frame_tick = HAL_GetTick();
ARM GAS  C:\Users\bulli\AppData\Local\Temp\ccMLKjFn.s 			page 15


 526              		.loc 1 180 47 view .LVU144
 527 008c 42EA0323 		orr	r3, r2, r3, lsl #8
 180:Core/Src/main.c ****                 rc.last_frame_tick = HAL_GetTick();
 528              		.loc 1 180 24 view .LVU145
 529 0090 0446     		mov	r4, r0
 530 0092 C380     		strh	r3, [r0, #6]	@ movhi
 181:Core/Src/main.c ****                 rc.link_ok = 1;
 531              		.loc 1 181 17 is_stmt 1 view .LVU146
 181:Core/Src/main.c ****                 rc.link_ok = 1;
 532              		.loc 1 181 38 is_stmt 0 view .LVU147
 533 0094 FFF7FEFF 		bl	HAL_GetTick
 534              	.LVL38:
 181:Core/Src/main.c ****                 rc.link_ok = 1;
 535              		.loc 1 181 36 discriminator 1 view .LVU148
 536 0098 A060     		str	r0, [r4, #8]
 182:Core/Src/main.c ****                 update_servo_pwm(rc.ch1);
 537              		.loc 1 182 17 is_stmt 1 view .LVU149
 182:Core/Src/main.c ****                 update_servo_pwm(rc.ch1);
 538              		.loc 1 182 28 is_stmt 0 view .LVU150
 539 009a 0123     		movs	r3, #1
 540 009c 2373     		strb	r3, [r4, #12]
 183:Core/Src/main.c ****                 update_gear_pwm(rc.ch3);
 541              		.loc 1 183 17 is_stmt 1 view .LVU151
 542 009e 2088     		ldrh	r0, [r4]
 543 00a0 FFF7FEFF 		bl	update_servo_pwm
 544              	.LVL39:
 184:Core/Src/main.c ****             }
 545              		.loc 1 184 17 view .LVU152
 546 00a4 A088     		ldrh	r0, [r4, #4]
 547 00a6 FFF7FEFF 		bl	update_gear_pwm
 548              	.LVL40:
 549 00aa D8E7     		b	.L36
 550              	.L45:
 551              		.align	2
 552              	.L44:
 553 00ac 00000000 		.word	pstate
 554 00b0 00000000 		.word	pidx
 555 00b4 00000000 		.word	payload
 556 00b8 00000000 		.word	rc
 557              	.LBE13:
 558              		.cfi_endproc
 559              	.LFE137:
 561              		.section	.text.MX_GPIO_Init,"ax",%progbits
 562              		.align	1
 563              		.syntax unified
 564              		.thumb
 565              		.thumb_func
 567              	MX_GPIO_Init:
 568              	.LFB144:
 207:Core/Src/main.c **** 
 208:Core/Src/main.c **** /* USER CODE END 0 */
 209:Core/Src/main.c **** 
 210:Core/Src/main.c **** /**
 211:Core/Src/main.c ****   * @brief  The application entry point.
 212:Core/Src/main.c ****   * @retval int
 213:Core/Src/main.c ****   */
 214:Core/Src/main.c **** int main(void)
ARM GAS  C:\Users\bulli\AppData\Local\Temp\ccMLKjFn.s 			page 16


 215:Core/Src/main.c **** {
 216:Core/Src/main.c **** 
 217:Core/Src/main.c ****   /* USER CODE BEGIN 1 */
 218:Core/Src/main.c **** 
 219:Core/Src/main.c ****   /* USER CODE END 1 */
 220:Core/Src/main.c **** 
 221:Core/Src/main.c ****   /* MCU Configuration--------------------------------------------------------*/
 222:Core/Src/main.c **** 
 223:Core/Src/main.c ****   /* Reset of all peripherals, Initializes the Flash interface and the Systick. */
 224:Core/Src/main.c ****   HAL_Init();
 225:Core/Src/main.c **** 
 226:Core/Src/main.c ****   /* USER CODE BEGIN Init */
 227:Core/Src/main.c **** 
 228:Core/Src/main.c ****   /* USER CODE END Init */
 229:Core/Src/main.c **** 
 230:Core/Src/main.c ****   /* Configure the system clock */
 231:Core/Src/main.c ****   SystemClock_Config();
 232:Core/Src/main.c **** 
 233:Core/Src/main.c ****   /* USER CODE BEGIN SysInit */
 234:Core/Src/main.c **** 
 235:Core/Src/main.c ****   /* USER CODE END SysInit */
 236:Core/Src/main.c **** 
 237:Core/Src/main.c ****   /* Initialize all configured peripherals */
 238:Core/Src/main.c ****   MX_GPIO_Init();
 239:Core/Src/main.c ****   MX_USART2_UART_Init();
 240:Core/Src/main.c ****   MX_TIM2_Init();
 241:Core/Src/main.c ****   /* USER CODE BEGIN 2 */
 242:Core/Src/main.c ****   HAL_UART_Receive_IT(&huart2, &rx_byte, 1);
 243:Core/Src/main.c **** 
 244:Core/Src/main.c ****   /* Start PWM on TIM2 CH1 (PA0) brake servo, CH2 (PA1) gear servo */
 245:Core/Src/main.c ****   extern TIM_HandleTypeDef htim2;
 246:Core/Src/main.c ****   HAL_TIM_PWM_Start(&htim2, TIM_CHANNEL_1);
 247:Core/Src/main.c ****   HAL_TIM_PWM_Start(&htim2, TIM_CHANNEL_2);
 248:Core/Src/main.c **** 
 249:Core/Src/main.c ****   /* Set initial failsafe positions */
 250:Core/Src/main.c ****   update_servo_pwm(PWM_FAILSAFE_US);
 251:Core/Src/main.c ****   update_gear_pwm(PWM_GEAR_FAILSAFE_US);
 252:Core/Src/main.c ****   /* USER CODE END 2 */
 253:Core/Src/main.c **** 
 254:Core/Src/main.c ****   /* Infinite loop */
 255:Core/Src/main.c ****   /* USER CODE BEGIN WHILE */
 256:Core/Src/main.c ****   while (1)
 257:Core/Src/main.c ****   {
 258:Core/Src/main.c ****     /* USER CODE END WHILE */
 259:Core/Src/main.c **** 
 260:Core/Src/main.c ****     /* USER CODE BEGIN 3 */
 261:Core/Src/main.c ****     /* Drain ISR bytes into parser */
 262:Core/Src/main.c ****     uint8_t b;
 263:Core/Src/main.c ****     while (rb_pop(&b)) parser_feed(b);
 264:Core/Src/main.c **** 
 265:Core/Src/main.c ****     /* Failsafe timeout */
 266:Core/Src/main.c ****     uint32_t now = HAL_GetTick();
 267:Core/Src/main.c ****     if (rc.link_ok && (now - rc.last_frame_tick) > FAILSAFE_MS) {
 268:Core/Src/main.c ****         rc.link_ok = 0;
 269:Core/Src/main.c ****         rc.ch1 = PWM_FAILSAFE_US;
 270:Core/Src/main.c ****         rc.ch3 = PWM_GEAR_FAILSAFE_US;
 271:Core/Src/main.c ****         rc.ch2 = rc.ch4 = FAILSAFE_CENTER;
ARM GAS  C:\Users\bulli\AppData\Local\Temp\ccMLKjFn.s 			page 17


 272:Core/Src/main.c ****         update_servo_pwm(PWM_FAILSAFE_US);
 273:Core/Src/main.c ****         update_gear_pwm(PWM_GEAR_FAILSAFE_US);
 274:Core/Src/main.c ****     }
 275:Core/Src/main.c **** 
 276:Core/Src/main.c ****     /* LED: solid on valid link, 2 Hz blink on failsafe */
 277:Core/Src/main.c ****     if (rc.link_ok) {
 278:Core/Src/main.c ****         HAL_GPIO_WritePin(LD2_GPIO_Port, LD2_Pin, GPIO_PIN_SET);
 279:Core/Src/main.c ****     } else {
 280:Core/Src/main.c ****         static uint32_t last_toggle = 0;
 281:Core/Src/main.c ****         if ((now - last_toggle) >= HEARTBEAT_MS) {
 282:Core/Src/main.c ****             HAL_GPIO_TogglePin(LD2_GPIO_Port, LD2_Pin);
 283:Core/Src/main.c ****             last_toggle = now;
 284:Core/Src/main.c ****         }
 285:Core/Src/main.c ****     }
 286:Core/Src/main.c ****   }
 287:Core/Src/main.c ****   /* USER CODE END 3 */
 288:Core/Src/main.c **** }
 289:Core/Src/main.c **** 
 290:Core/Src/main.c **** /**
 291:Core/Src/main.c ****   * @brief System Clock Configuration
 292:Core/Src/main.c ****   * @retval None
 293:Core/Src/main.c ****   */
 294:Core/Src/main.c **** void SystemClock_Config(void)
 295:Core/Src/main.c **** {
 296:Core/Src/main.c ****   RCC_OscInitTypeDef RCC_OscInitStruct = {0};
 297:Core/Src/main.c ****   RCC_ClkInitTypeDef RCC_ClkInitStruct = {0};
 298:Core/Src/main.c **** 
 299:Core/Src/main.c ****   /** Configure the main internal regulator output voltage
 300:Core/Src/main.c ****   */
 301:Core/Src/main.c ****   __HAL_RCC_PWR_CLK_ENABLE();
 302:Core/Src/main.c ****   __HAL_PWR_VOLTAGESCALING_CONFIG(PWR_REGULATOR_VOLTAGE_SCALE2);
 303:Core/Src/main.c **** 
 304:Core/Src/main.c ****   /** Initializes the RCC Oscillators according to the specified parameters
 305:Core/Src/main.c ****   * in the RCC_OscInitTypeDef structure.
 306:Core/Src/main.c ****   */
 307:Core/Src/main.c ****   RCC_OscInitStruct.OscillatorType = RCC_OSCILLATORTYPE_HSE;
 308:Core/Src/main.c ****   RCC_OscInitStruct.HSEState = RCC_HSE_BYPASS;
 309:Core/Src/main.c ****   RCC_OscInitStruct.PLL.PLLState = RCC_PLL_ON;
 310:Core/Src/main.c ****   RCC_OscInitStruct.PLL.PLLSource = RCC_PLLSOURCE_HSE;
 311:Core/Src/main.c ****   RCC_OscInitStruct.PLL.PLLM = 4;
 312:Core/Src/main.c ****   RCC_OscInitStruct.PLL.PLLN = 84;
 313:Core/Src/main.c ****   RCC_OscInitStruct.PLL.PLLP = RCC_PLLP_DIV2;
 314:Core/Src/main.c ****   RCC_OscInitStruct.PLL.PLLQ = 7;
 315:Core/Src/main.c ****   if (HAL_RCC_OscConfig(&RCC_OscInitStruct) != HAL_OK)
 316:Core/Src/main.c ****   {
 317:Core/Src/main.c ****     Error_Handler();
 318:Core/Src/main.c ****   }
 319:Core/Src/main.c **** 
 320:Core/Src/main.c ****   /** Initializes the CPU, AHB and APB buses clocks
 321:Core/Src/main.c ****   */
 322:Core/Src/main.c ****   RCC_ClkInitStruct.ClockType = RCC_CLOCKTYPE_HCLK|RCC_CLOCKTYPE_SYSCLK
 323:Core/Src/main.c ****                               |RCC_CLOCKTYPE_PCLK1|RCC_CLOCKTYPE_PCLK2;
 324:Core/Src/main.c ****   RCC_ClkInitStruct.SYSCLKSource = RCC_SYSCLKSOURCE_PLLCLK;
 325:Core/Src/main.c ****   RCC_ClkInitStruct.AHBCLKDivider = RCC_SYSCLK_DIV1;
 326:Core/Src/main.c ****   RCC_ClkInitStruct.APB1CLKDivider = RCC_HCLK_DIV2;
 327:Core/Src/main.c ****   RCC_ClkInitStruct.APB2CLKDivider = RCC_HCLK_DIV1;
 328:Core/Src/main.c **** 
ARM GAS  C:\Users\bulli\AppData\Local\Temp\ccMLKjFn.s 			page 18


 329:Core/Src/main.c ****   if (HAL_RCC_ClockConfig(&RCC_ClkInitStruct, FLASH_LATENCY_2) != HAL_OK)
 330:Core/Src/main.c ****   {
 331:Core/Src/main.c ****     Error_Handler();
 332:Core/Src/main.c ****   }
 333:Core/Src/main.c **** }
 334:Core/Src/main.c **** 
 335:Core/Src/main.c **** /**
 336:Core/Src/main.c ****   * @brief TIM2 Initialization Function
 337:Core/Src/main.c ****   * @param None
 338:Core/Src/main.c ****   * @retval None
 339:Core/Src/main.c ****   */
 340:Core/Src/main.c **** static void MX_TIM2_Init(void)
 341:Core/Src/main.c **** {
 342:Core/Src/main.c **** 
 343:Core/Src/main.c ****   /* USER CODE BEGIN TIM2_Init 0 */
 344:Core/Src/main.c **** 
 345:Core/Src/main.c ****   /* USER CODE END TIM2_Init 0 */
 346:Core/Src/main.c **** 
 347:Core/Src/main.c ****   TIM_ClockConfigTypeDef sClockSourceConfig = {0};
 348:Core/Src/main.c ****   TIM_MasterConfigTypeDef sMasterConfig = {0};
 349:Core/Src/main.c ****   TIM_OC_InitTypeDef sConfigOC = {0};
 350:Core/Src/main.c **** 
 351:Core/Src/main.c ****   /* USER CODE BEGIN TIM2_Init 1 */
 352:Core/Src/main.c **** 
 353:Core/Src/main.c ****   /* USER CODE END TIM2_Init 1 */
 354:Core/Src/main.c ****   htim2.Instance = TIM2;
 355:Core/Src/main.c ****   htim2.Init.Prescaler = 1679;
 356:Core/Src/main.c ****   htim2.Init.CounterMode = TIM_COUNTERMODE_UP;
 357:Core/Src/main.c ****   htim2.Init.Period = 999;
 358:Core/Src/main.c ****   htim2.Init.ClockDivision = TIM_CLOCKDIVISION_DIV1;
 359:Core/Src/main.c ****   htim2.Init.AutoReloadPreload = TIM_AUTORELOAD_PRELOAD_ENABLE;
 360:Core/Src/main.c ****   if (HAL_TIM_Base_Init(&htim2) != HAL_OK)
 361:Core/Src/main.c ****   {
 362:Core/Src/main.c ****     Error_Handler();
 363:Core/Src/main.c ****   }
 364:Core/Src/main.c ****   sClockSourceConfig.ClockSource = TIM_CLOCKSOURCE_INTERNAL;
 365:Core/Src/main.c ****   if (HAL_TIM_ConfigClockSource(&htim2, &sClockSourceConfig) != HAL_OK)
 366:Core/Src/main.c ****   {
 367:Core/Src/main.c ****     Error_Handler();
 368:Core/Src/main.c ****   }
 369:Core/Src/main.c ****   if (HAL_TIM_PWM_Init(&htim2) != HAL_OK)
 370:Core/Src/main.c ****   {
 371:Core/Src/main.c ****     Error_Handler();
 372:Core/Src/main.c ****   }
 373:Core/Src/main.c ****   sMasterConfig.MasterOutputTrigger = TIM_TRGO_RESET;
 374:Core/Src/main.c ****   sMasterConfig.MasterSlaveMode = TIM_MASTERSLAVEMODE_DISABLE;
 375:Core/Src/main.c ****   if (HAL_TIMEx_MasterConfigSynchronization(&htim2, &sMasterConfig) != HAL_OK)
 376:Core/Src/main.c ****   {
 377:Core/Src/main.c ****     Error_Handler();
 378:Core/Src/main.c ****   }
 379:Core/Src/main.c ****   sConfigOC.OCMode = TIM_OCMODE_PWM1;
 380:Core/Src/main.c ****   sConfigOC.Pulse = 75;
 381:Core/Src/main.c ****   sConfigOC.OCPolarity = TIM_OCPOLARITY_HIGH;
 382:Core/Src/main.c ****   sConfigOC.OCFastMode = TIM_OCFAST_DISABLE;
 383:Core/Src/main.c ****   if (HAL_TIM_PWM_ConfigChannel(&htim2, &sConfigOC, TIM_CHANNEL_1) != HAL_OK)
 384:Core/Src/main.c ****   {
 385:Core/Src/main.c ****     Error_Handler();
ARM GAS  C:\Users\bulli\AppData\Local\Temp\ccMLKjFn.s 			page 19


 386:Core/Src/main.c ****   }
 387:Core/Src/main.c ****   sConfigOC.Pulse = 0;
 388:Core/Src/main.c ****   if (HAL_TIM_PWM_ConfigChannel(&htim2, &sConfigOC, TIM_CHANNEL_2) != HAL_OK)
 389:Core/Src/main.c ****   {
 390:Core/Src/main.c ****     Error_Handler();
 391:Core/Src/main.c ****   }
 392:Core/Src/main.c ****   /* USER CODE BEGIN TIM2_Init 2 */
 393:Core/Src/main.c **** 
 394:Core/Src/main.c ****   /* USER CODE END TIM2_Init 2 */
 395:Core/Src/main.c ****   HAL_TIM_MspPostInit(&htim2);
 396:Core/Src/main.c **** 
 397:Core/Src/main.c **** }
 398:Core/Src/main.c **** 
 399:Core/Src/main.c **** /**
 400:Core/Src/main.c ****   * @brief USART2 Initialization Function
 401:Core/Src/main.c ****   * @param None
 402:Core/Src/main.c ****   * @retval None
 403:Core/Src/main.c ****   */
 404:Core/Src/main.c **** static void MX_USART2_UART_Init(void)
 405:Core/Src/main.c **** {
 406:Core/Src/main.c **** 
 407:Core/Src/main.c ****   /* USER CODE BEGIN USART2_Init 0 */
 408:Core/Src/main.c **** 
 409:Core/Src/main.c ****   /* USER CODE END USART2_Init 0 */
 410:Core/Src/main.c **** 
 411:Core/Src/main.c ****   /* USER CODE BEGIN USART2_Init 1 */
 412:Core/Src/main.c **** 
 413:Core/Src/main.c ****   /* USER CODE END USART2_Init 1 */
 414:Core/Src/main.c ****   huart2.Instance = USART2;
 415:Core/Src/main.c ****   huart2.Init.BaudRate = 115200;
 416:Core/Src/main.c ****   huart2.Init.WordLength = UART_WORDLENGTH_8B;
 417:Core/Src/main.c ****   huart2.Init.StopBits = UART_STOPBITS_1;
 418:Core/Src/main.c ****   huart2.Init.Parity = UART_PARITY_NONE;
 419:Core/Src/main.c ****   huart2.Init.Mode = UART_MODE_TX_RX;
 420:Core/Src/main.c ****   huart2.Init.HwFlowCtl = UART_HWCONTROL_NONE;
 421:Core/Src/main.c ****   huart2.Init.OverSampling = UART_OVERSAMPLING_16;
 422:Core/Src/main.c ****   if (HAL_UART_Init(&huart2) != HAL_OK)
 423:Core/Src/main.c ****   {
 424:Core/Src/main.c ****     Error_Handler();
 425:Core/Src/main.c ****   }
 426:Core/Src/main.c ****   /* USER CODE BEGIN USART2_Init 2 */
 427:Core/Src/main.c **** 
 428:Core/Src/main.c ****   /* USER CODE END USART2_Init 2 */
 429:Core/Src/main.c **** 
 430:Core/Src/main.c **** }
 431:Core/Src/main.c **** 
 432:Core/Src/main.c **** /**
 433:Core/Src/main.c ****   * @brief GPIO Initialization Function
 434:Core/Src/main.c ****   * @param None
 435:Core/Src/main.c ****   * @retval None
 436:Core/Src/main.c ****   */
 437:Core/Src/main.c **** static void MX_GPIO_Init(void)
 438:Core/Src/main.c **** {
 569              		.loc 1 438 1 view -0
 570              		.cfi_startproc
 571              		@ args = 0, pretend = 0, frame = 40
 572              		@ frame_needed = 0, uses_anonymous_args = 0
ARM GAS  C:\Users\bulli\AppData\Local\Temp\ccMLKjFn.s 			page 20


 573 0000 70B5     		push	{r4, r5, r6, lr}
 574              		.cfi_def_cfa_offset 16
 575              		.cfi_offset 4, -16
 576              		.cfi_offset 5, -12
 577              		.cfi_offset 6, -8
 578              		.cfi_offset 14, -4
 579 0002 8AB0     		sub	sp, sp, #40
 580              		.cfi_def_cfa_offset 56
 439:Core/Src/main.c ****   GPIO_InitTypeDef GPIO_InitStruct = {0};
 581              		.loc 1 439 3 view .LVU154
 582              		.loc 1 439 20 is_stmt 0 view .LVU155
 583 0004 05AD     		add	r5, sp, #20
 584 0006 0024     		movs	r4, #0
 585 0008 0594     		str	r4, [sp, #20]
 586 000a 0694     		str	r4, [sp, #24]
 587 000c 0794     		str	r4, [sp, #28]
 588 000e 0894     		str	r4, [sp, #32]
 589 0010 0994     		str	r4, [sp, #36]
 440:Core/Src/main.c ****   /* USER CODE BEGIN MX_GPIO_Init_1 */
 441:Core/Src/main.c **** 
 442:Core/Src/main.c ****   /* USER CODE END MX_GPIO_Init_1 */
 443:Core/Src/main.c **** 
 444:Core/Src/main.c ****   /* GPIO Ports Clock Enable */
 445:Core/Src/main.c ****   __HAL_RCC_GPIOC_CLK_ENABLE();
 590              		.loc 1 445 3 is_stmt 1 view .LVU156
 591              	.LBB14:
 592              		.loc 1 445 3 view .LVU157
 593 0012 0194     		str	r4, [sp, #4]
 594              		.loc 1 445 3 view .LVU158
 595 0014 224B     		ldr	r3, .L48
 596 0016 1A6B     		ldr	r2, [r3, #48]
 597 0018 42F00402 		orr	r2, r2, #4
 598 001c 1A63     		str	r2, [r3, #48]
 599              		.loc 1 445 3 view .LVU159
 600 001e 1A6B     		ldr	r2, [r3, #48]
 601 0020 02F00402 		and	r2, r2, #4
 602 0024 0192     		str	r2, [sp, #4]
 603              		.loc 1 445 3 view .LVU160
 604 0026 019A     		ldr	r2, [sp, #4]
 605              	.LBE14:
 606              		.loc 1 445 3 view .LVU161
 446:Core/Src/main.c ****   __HAL_RCC_GPIOH_CLK_ENABLE();
 607              		.loc 1 446 3 view .LVU162
 608              	.LBB15:
 609              		.loc 1 446 3 view .LVU163
 610 0028 0294     		str	r4, [sp, #8]
 611              		.loc 1 446 3 view .LVU164
 612 002a 1A6B     		ldr	r2, [r3, #48]
 613 002c 42F08002 		orr	r2, r2, #128
 614 0030 1A63     		str	r2, [r3, #48]
 615              		.loc 1 446 3 view .LVU165
 616 0032 1A6B     		ldr	r2, [r3, #48]
 617 0034 02F08002 		and	r2, r2, #128
 618 0038 0292     		str	r2, [sp, #8]
 619              		.loc 1 446 3 view .LVU166
 620 003a 029A     		ldr	r2, [sp, #8]
 621              	.LBE15:
ARM GAS  C:\Users\bulli\AppData\Local\Temp\ccMLKjFn.s 			page 21


 622              		.loc 1 446 3 view .LVU167
 447:Core/Src/main.c ****   __HAL_RCC_GPIOA_CLK_ENABLE();
 623              		.loc 1 447 3 view .LVU168
 624              	.LBB16:
 625              		.loc 1 447 3 view .LVU169
 626 003c 0394     		str	r4, [sp, #12]
 627              		.loc 1 447 3 view .LVU170
 628 003e 1A6B     		ldr	r2, [r3, #48]
 629 0040 42F00102 		orr	r2, r2, #1
 630 0044 1A63     		str	r2, [r3, #48]
 631              		.loc 1 447 3 view .LVU171
 632 0046 1A6B     		ldr	r2, [r3, #48]
 633 0048 02F00102 		and	r2, r2, #1
 634 004c 0392     		str	r2, [sp, #12]
 635              		.loc 1 447 3 view .LVU172
 636 004e 039A     		ldr	r2, [sp, #12]
 637              	.LBE16:
 638              		.loc 1 447 3 view .LVU173
 448:Core/Src/main.c ****   __HAL_RCC_GPIOB_CLK_ENABLE();
 639              		.loc 1 448 3 view .LVU174
 640              	.LBB17:
 641              		.loc 1 448 3 view .LVU175
 642 0050 0494     		str	r4, [sp, #16]
 643              		.loc 1 448 3 view .LVU176
 644 0052 1A6B     		ldr	r2, [r3, #48]
 645 0054 42F00202 		orr	r2, r2, #2
 646 0058 1A63     		str	r2, [r3, #48]
 647              		.loc 1 448 3 view .LVU177
 648 005a 1B6B     		ldr	r3, [r3, #48]
 649 005c 03F00203 		and	r3, r3, #2
 650 0060 0493     		str	r3, [sp, #16]
 651              		.loc 1 448 3 view .LVU178
 652 0062 049B     		ldr	r3, [sp, #16]
 653              	.LBE17:
 654              		.loc 1 448 3 view .LVU179
 449:Core/Src/main.c **** 
 450:Core/Src/main.c ****   /*Configure GPIO pin Output Level */
 451:Core/Src/main.c ****   HAL_GPIO_WritePin(LD2_GPIO_Port, LD2_Pin, GPIO_PIN_RESET);
 655              		.loc 1 451 3 view .LVU180
 656 0064 0F4E     		ldr	r6, .L48+4
 657 0066 2246     		mov	r2, r4
 658 0068 2021     		movs	r1, #32
 659 006a 3046     		mov	r0, r6
 660 006c FFF7FEFF 		bl	HAL_GPIO_WritePin
 661              	.LVL41:
 452:Core/Src/main.c **** 
 453:Core/Src/main.c ****   /*Configure GPIO pin : B1_Pin */
 454:Core/Src/main.c ****   GPIO_InitStruct.Pin = B1_Pin;
 662              		.loc 1 454 3 view .LVU181
 663              		.loc 1 454 23 is_stmt 0 view .LVU182
 664 0070 4FF40053 		mov	r3, #8192
 665 0074 0593     		str	r3, [sp, #20]
 455:Core/Src/main.c ****   GPIO_InitStruct.Mode = GPIO_MODE_IT_FALLING;
 666              		.loc 1 455 3 is_stmt 1 view .LVU183
 667              		.loc 1 455 24 is_stmt 0 view .LVU184
 668 0076 4FF40413 		mov	r3, #2162688
 669 007a 0693     		str	r3, [sp, #24]
ARM GAS  C:\Users\bulli\AppData\Local\Temp\ccMLKjFn.s 			page 22


 456:Core/Src/main.c ****   GPIO_InitStruct.Pull = GPIO_NOPULL;
 670              		.loc 1 456 3 is_stmt 1 view .LVU185
 671              		.loc 1 456 24 is_stmt 0 view .LVU186
 672 007c 0794     		str	r4, [sp, #28]
 457:Core/Src/main.c ****   HAL_GPIO_Init(B1_GPIO_Port, &GPIO_InitStruct);
 673              		.loc 1 457 3 is_stmt 1 view .LVU187
 674 007e 2946     		mov	r1, r5
 675 0080 0948     		ldr	r0, .L48+8
 676 0082 FFF7FEFF 		bl	HAL_GPIO_Init
 677              	.LVL42:
 458:Core/Src/main.c **** 
 459:Core/Src/main.c ****   /*Configure GPIO pin : LD2_Pin */
 460:Core/Src/main.c ****   GPIO_InitStruct.Pin = LD2_Pin;
 678              		.loc 1 460 3 view .LVU188
 679              		.loc 1 460 23 is_stmt 0 view .LVU189
 680 0086 2023     		movs	r3, #32
 681 0088 0593     		str	r3, [sp, #20]
 461:Core/Src/main.c ****   GPIO_InitStruct.Mode = GPIO_MODE_OUTPUT_PP;
 682              		.loc 1 461 3 is_stmt 1 view .LVU190
 683              		.loc 1 461 24 is_stmt 0 view .LVU191
 684 008a 0123     		movs	r3, #1
 685 008c 0693     		str	r3, [sp, #24]
 462:Core/Src/main.c ****   GPIO_InitStruct.Pull = GPIO_NOPULL;
 686              		.loc 1 462 3 is_stmt 1 view .LVU192
 687              		.loc 1 462 24 is_stmt 0 view .LVU193
 688 008e 0794     		str	r4, [sp, #28]
 463:Core/Src/main.c ****   GPIO_InitStruct.Speed = GPIO_SPEED_FREQ_LOW;
 689              		.loc 1 463 3 is_stmt 1 view .LVU194
 690              		.loc 1 463 25 is_stmt 0 view .LVU195
 691 0090 0894     		str	r4, [sp, #32]
 464:Core/Src/main.c ****   HAL_GPIO_Init(LD2_GPIO_Port, &GPIO_InitStruct);
 692              		.loc 1 464 3 is_stmt 1 view .LVU196
 693 0092 2946     		mov	r1, r5
 694 0094 3046     		mov	r0, r6
 695 0096 FFF7FEFF 		bl	HAL_GPIO_Init
 696              	.LVL43:
 465:Core/Src/main.c **** 
 466:Core/Src/main.c ****   /* USER CODE BEGIN MX_GPIO_Init_2 */
 467:Core/Src/main.c **** 
 468:Core/Src/main.c ****   /* USER CODE END MX_GPIO_Init_2 */
 469:Core/Src/main.c **** }
 697              		.loc 1 469 1 is_stmt 0 view .LVU197
 698 009a 0AB0     		add	sp, sp, #40
 699              		.cfi_def_cfa_offset 16
 700              		@ sp needed
 701 009c 70BD     		pop	{r4, r5, r6, pc}
 702              	.L49:
 703 009e 00BF     		.align	2
 704              	.L48:
 705 00a0 00380240 		.word	1073887232
 706 00a4 00000240 		.word	1073872896
 707 00a8 00080240 		.word	1073874944
 708              		.cfi_endproc
 709              	.LFE144:
 711              		.section	.text.HAL_UART_RxCpltCallback,"ax",%progbits
 712              		.align	1
 713              		.global	HAL_UART_RxCpltCallback
ARM GAS  C:\Users\bulli\AppData\Local\Temp\ccMLKjFn.s 			page 23


 714              		.syntax unified
 715              		.thumb
 716              		.thumb_func
 718              	HAL_UART_RxCpltCallback:
 719              	.LVL44:
 720              	.LFB145:
 470:Core/Src/main.c **** 
 471:Core/Src/main.c **** /* USER CODE BEGIN 4 */
 472:Core/Src/main.c **** 
 473:Core/Src/main.c **** void HAL_UART_RxCpltCallback(UART_HandleTypeDef *huart) {
 721              		.loc 1 473 57 is_stmt 1 view -0
 722              		.cfi_startproc
 723              		@ args = 0, pretend = 0, frame = 0
 724              		@ frame_needed = 0, uses_anonymous_args = 0
 725              		.loc 1 473 57 is_stmt 0 view .LVU199
 726 0000 08B5     		push	{r3, lr}
 727              		.cfi_def_cfa_offset 8
 728              		.cfi_offset 3, -8
 729              		.cfi_offset 14, -4
 474:Core/Src/main.c ****     if (huart->Instance == USART2) {
 730              		.loc 1 474 5 is_stmt 1 view .LVU200
 731              		.loc 1 474 14 is_stmt 0 view .LVU201
 732 0002 0268     		ldr	r2, [r0]
 733              		.loc 1 474 8 view .LVU202
 734 0004 064B     		ldr	r3, .L54
 735 0006 9A42     		cmp	r2, r3
 736 0008 00D0     		beq	.L53
 737              	.LVL45:
 738              	.L50:
 475:Core/Src/main.c ****         rb_push(rx_byte);
 476:Core/Src/main.c ****         HAL_UART_Receive_IT(&huart2, &rx_byte, 1);   /* re-arm */
 477:Core/Src/main.c ****     }
 478:Core/Src/main.c **** }
 739              		.loc 1 478 1 view .LVU203
 740 000a 08BD     		pop	{r3, pc}
 741              	.LVL46:
 742              	.L53:
 475:Core/Src/main.c ****         rb_push(rx_byte);
 743              		.loc 1 475 9 is_stmt 1 view .LVU204
 744 000c 054B     		ldr	r3, .L54+4
 745 000e 1878     		ldrb	r0, [r3]	@ zero_extendqisi2
 746              	.LVL47:
 475:Core/Src/main.c ****         rb_push(rx_byte);
 747              		.loc 1 475 9 is_stmt 0 view .LVU205
 748 0010 FFF7FEFF 		bl	rb_push
 749              	.LVL48:
 476:Core/Src/main.c ****     }
 750              		.loc 1 476 9 is_stmt 1 view .LVU206
 751 0014 0122     		movs	r2, #1
 752 0016 0349     		ldr	r1, .L54+4
 753 0018 0348     		ldr	r0, .L54+8
 754 001a FFF7FEFF 		bl	HAL_UART_Receive_IT
 755              	.LVL49:
 756              		.loc 1 478 1 is_stmt 0 view .LVU207
 757 001e F4E7     		b	.L50
 758              	.L55:
 759              		.align	2
ARM GAS  C:\Users\bulli\AppData\Local\Temp\ccMLKjFn.s 			page 24


 760              	.L54:
 761 0020 00440040 		.word	1073759232
 762 0024 00000000 		.word	rx_byte
 763 0028 00000000 		.word	huart2
 764              		.cfi_endproc
 765              	.LFE145:
 767              		.section	.text.HAL_UART_ErrorCallback,"ax",%progbits
 768              		.align	1
 769              		.global	HAL_UART_ErrorCallback
 770              		.syntax unified
 771              		.thumb
 772              		.thumb_func
 774              	HAL_UART_ErrorCallback:
 775              	.LVL50:
 776              	.LFB146:
 479:Core/Src/main.c **** 
 480:Core/Src/main.c **** void HAL_UART_ErrorCallback(UART_HandleTypeDef *huart) {
 777              		.loc 1 480 56 is_stmt 1 view -0
 778              		.cfi_startproc
 779              		@ args = 0, pretend = 0, frame = 16
 780              		@ frame_needed = 0, uses_anonymous_args = 0
 481:Core/Src/main.c ****     if (huart->Instance == USART2) {
 781              		.loc 1 481 5 view .LVU209
 782              		.loc 1 481 14 is_stmt 0 view .LVU210
 783 0000 0368     		ldr	r3, [r0]
 784              		.loc 1 481 8 view .LVU211
 785 0002 134A     		ldr	r2, .L63
 786 0004 9342     		cmp	r3, r2
 787 0006 00D0     		beq	.L62
 788 0008 7047     		bx	lr
 789              	.L62:
 480:Core/Src/main.c ****     if (huart->Instance == USART2) {
 790              		.loc 1 480 56 view .LVU212
 791 000a 00B5     		push	{lr}
 792              		.cfi_def_cfa_offset 4
 793              		.cfi_offset 14, -4
 794 000c 85B0     		sub	sp, sp, #20
 795              		.cfi_def_cfa_offset 24
 482:Core/Src/main.c ****         __HAL_UART_CLEAR_OREFLAG(huart);
 796              		.loc 1 482 9 is_stmt 1 view .LVU213
 797              	.LBB18:
 798              		.loc 1 482 9 view .LVU214
 799 000e 0022     		movs	r2, #0
 800 0010 0092     		str	r2, [sp]
 801              		.loc 1 482 9 view .LVU215
 802 0012 1968     		ldr	r1, [r3]
 803 0014 0091     		str	r1, [sp]
 804              		.loc 1 482 9 view .LVU216
 805 0016 5968     		ldr	r1, [r3, #4]
 806 0018 0091     		str	r1, [sp]
 807              		.loc 1 482 9 view .LVU217
 808 001a 0099     		ldr	r1, [sp]
 809              	.LBE18:
 810              		.loc 1 482 9 view .LVU218
 483:Core/Src/main.c ****         __HAL_UART_CLEAR_NEFLAG(huart);
 811              		.loc 1 483 9 view .LVU219
 812              	.LBB19:
ARM GAS  C:\Users\bulli\AppData\Local\Temp\ccMLKjFn.s 			page 25


 813              		.loc 1 483 9 view .LVU220
 814 001c 0192     		str	r2, [sp, #4]
 815              		.loc 1 483 9 view .LVU221
 816 001e 1968     		ldr	r1, [r3]
 817 0020 0191     		str	r1, [sp, #4]
 818              		.loc 1 483 9 view .LVU222
 819 0022 5968     		ldr	r1, [r3, #4]
 820 0024 0191     		str	r1, [sp, #4]
 821              		.loc 1 483 9 view .LVU223
 822 0026 0199     		ldr	r1, [sp, #4]
 823              	.LBE19:
 824              		.loc 1 483 9 view .LVU224
 484:Core/Src/main.c ****         __HAL_UART_CLEAR_FEFLAG(huart);
 825              		.loc 1 484 9 view .LVU225
 826              	.LBB20:
 827              		.loc 1 484 9 view .LVU226
 828 0028 0292     		str	r2, [sp, #8]
 829              		.loc 1 484 9 view .LVU227
 830 002a 1968     		ldr	r1, [r3]
 831 002c 0291     		str	r1, [sp, #8]
 832              		.loc 1 484 9 view .LVU228
 833 002e 5968     		ldr	r1, [r3, #4]
 834 0030 0291     		str	r1, [sp, #8]
 835              		.loc 1 484 9 view .LVU229
 836 0032 0299     		ldr	r1, [sp, #8]
 837              	.LBE20:
 838              		.loc 1 484 9 view .LVU230
 485:Core/Src/main.c ****         __HAL_UART_CLEAR_PEFLAG(huart);
 839              		.loc 1 485 9 view .LVU231
 840              	.LBB21:
 841              		.loc 1 485 9 view .LVU232
 842 0034 0392     		str	r2, [sp, #12]
 843              		.loc 1 485 9 view .LVU233
 844 0036 1A68     		ldr	r2, [r3]
 845 0038 0392     		str	r2, [sp, #12]
 846              		.loc 1 485 9 view .LVU234
 847 003a 5B68     		ldr	r3, [r3, #4]
 848 003c 0393     		str	r3, [sp, #12]
 849              		.loc 1 485 9 view .LVU235
 850 003e 039B     		ldr	r3, [sp, #12]
 851              	.LBE21:
 852              		.loc 1 485 9 view .LVU236
 486:Core/Src/main.c ****         HAL_UART_Receive_IT(&huart2, &rx_byte, 1);   /* re-arm after any error */
 853              		.loc 1 486 9 view .LVU237
 854 0040 0122     		movs	r2, #1
 855 0042 0449     		ldr	r1, .L63+4
 856 0044 0448     		ldr	r0, .L63+8
 857              	.LVL51:
 858              		.loc 1 486 9 is_stmt 0 view .LVU238
 859 0046 FFF7FEFF 		bl	HAL_UART_Receive_IT
 860              	.LVL52:
 487:Core/Src/main.c ****     }
 488:Core/Src/main.c **** }
 861              		.loc 1 488 1 view .LVU239
 862 004a 05B0     		add	sp, sp, #20
 863              		.cfi_def_cfa_offset 4
 864              		@ sp needed
ARM GAS  C:\Users\bulli\AppData\Local\Temp\ccMLKjFn.s 			page 26


 865 004c 00BD     		pop	{pc}
 866              	.L64:
 867 004e 00BF     		.align	2
 868              	.L63:
 869 0050 00440040 		.word	1073759232
 870 0054 00000000 		.word	rx_byte
 871 0058 00000000 		.word	huart2
 872              		.cfi_endproc
 873              	.LFE146:
 875              		.section	.text.Error_Handler,"ax",%progbits
 876              		.align	1
 877              		.global	Error_Handler
 878              		.syntax unified
 879              		.thumb
 880              		.thumb_func
 882              	Error_Handler:
 883              	.LFB147:
 489:Core/Src/main.c **** 
 490:Core/Src/main.c **** /* USER CODE END 4 */
 491:Core/Src/main.c **** 
 492:Core/Src/main.c **** /**
 493:Core/Src/main.c ****   * @brief  This function is executed in case of error occurrence.
 494:Core/Src/main.c ****   * @retval None
 495:Core/Src/main.c ****   */
 496:Core/Src/main.c **** void Error_Handler(void)
 497:Core/Src/main.c **** {
 884              		.loc 1 497 1 is_stmt 1 view -0
 885              		.cfi_startproc
 886              		@ Volatile: function does not return.
 887              		@ args = 0, pretend = 0, frame = 0
 888              		@ frame_needed = 0, uses_anonymous_args = 0
 889              		@ link register save eliminated.
 498:Core/Src/main.c ****   /* USER CODE BEGIN Error_Handler_Debug */
 499:Core/Src/main.c ****   /* User can add his own implementation to report the HAL error return state */
 500:Core/Src/main.c ****   __disable_irq();
 890              		.loc 1 500 3 view .LVU241
 891              	.LBB22:
 892              	.LBI22:
 893              		.file 2 "Drivers/CMSIS/Include/cmsis_gcc.h"
   1:Drivers/CMSIS/Include/cmsis_gcc.h **** /**************************************************************************//**
   2:Drivers/CMSIS/Include/cmsis_gcc.h ****  * @file     cmsis_gcc.h
   3:Drivers/CMSIS/Include/cmsis_gcc.h ****  * @brief    CMSIS compiler GCC header file
   4:Drivers/CMSIS/Include/cmsis_gcc.h ****  * @version  V5.4.1
   5:Drivers/CMSIS/Include/cmsis_gcc.h ****  * @date     27. May 2021
   6:Drivers/CMSIS/Include/cmsis_gcc.h ****  ******************************************************************************/
   7:Drivers/CMSIS/Include/cmsis_gcc.h **** /*
   8:Drivers/CMSIS/Include/cmsis_gcc.h ****  * Copyright (c) 2009-2021 Arm Limited. All rights reserved.
   9:Drivers/CMSIS/Include/cmsis_gcc.h ****  *
  10:Drivers/CMSIS/Include/cmsis_gcc.h ****  * SPDX-License-Identifier: Apache-2.0
  11:Drivers/CMSIS/Include/cmsis_gcc.h ****  *
  12:Drivers/CMSIS/Include/cmsis_gcc.h ****  * Licensed under the Apache License, Version 2.0 (the License); you may
  13:Drivers/CMSIS/Include/cmsis_gcc.h ****  * not use this file except in compliance with the License.
  14:Drivers/CMSIS/Include/cmsis_gcc.h ****  * You may obtain a copy of the License at
  15:Drivers/CMSIS/Include/cmsis_gcc.h ****  *
  16:Drivers/CMSIS/Include/cmsis_gcc.h ****  * www.apache.org/licenses/LICENSE-2.0
  17:Drivers/CMSIS/Include/cmsis_gcc.h ****  *
  18:Drivers/CMSIS/Include/cmsis_gcc.h ****  * Unless required by applicable law or agreed to in writing, software
ARM GAS  C:\Users\bulli\AppData\Local\Temp\ccMLKjFn.s 			page 27


  19:Drivers/CMSIS/Include/cmsis_gcc.h ****  * distributed under the License is distributed on an AS IS BASIS, WITHOUT
  20:Drivers/CMSIS/Include/cmsis_gcc.h ****  * WARRANTIES OR CONDITIONS OF ANY KIND, either express or implied.
  21:Drivers/CMSIS/Include/cmsis_gcc.h ****  * See the License for the specific language governing permissions and
  22:Drivers/CMSIS/Include/cmsis_gcc.h ****  * limitations under the License.
  23:Drivers/CMSIS/Include/cmsis_gcc.h ****  */
  24:Drivers/CMSIS/Include/cmsis_gcc.h **** 
  25:Drivers/CMSIS/Include/cmsis_gcc.h **** #ifndef __CMSIS_GCC_H
  26:Drivers/CMSIS/Include/cmsis_gcc.h **** #define __CMSIS_GCC_H
  27:Drivers/CMSIS/Include/cmsis_gcc.h **** 
  28:Drivers/CMSIS/Include/cmsis_gcc.h **** /* ignore some GCC warnings */
  29:Drivers/CMSIS/Include/cmsis_gcc.h **** #pragma GCC diagnostic push
  30:Drivers/CMSIS/Include/cmsis_gcc.h **** #pragma GCC diagnostic ignored "-Wsign-conversion"
  31:Drivers/CMSIS/Include/cmsis_gcc.h **** #pragma GCC diagnostic ignored "-Wconversion"
  32:Drivers/CMSIS/Include/cmsis_gcc.h **** #pragma GCC diagnostic ignored "-Wunused-parameter"
  33:Drivers/CMSIS/Include/cmsis_gcc.h **** 
  34:Drivers/CMSIS/Include/cmsis_gcc.h **** /* Fallback for __has_builtin */
  35:Drivers/CMSIS/Include/cmsis_gcc.h **** #ifndef __has_builtin
  36:Drivers/CMSIS/Include/cmsis_gcc.h ****   #define __has_builtin(x) (0)
  37:Drivers/CMSIS/Include/cmsis_gcc.h **** #endif
  38:Drivers/CMSIS/Include/cmsis_gcc.h **** 
  39:Drivers/CMSIS/Include/cmsis_gcc.h **** /* CMSIS compiler specific defines */
  40:Drivers/CMSIS/Include/cmsis_gcc.h **** #ifndef   __ASM
  41:Drivers/CMSIS/Include/cmsis_gcc.h ****   #define __ASM                                  __asm
  42:Drivers/CMSIS/Include/cmsis_gcc.h **** #endif
  43:Drivers/CMSIS/Include/cmsis_gcc.h **** #ifndef   __INLINE
  44:Drivers/CMSIS/Include/cmsis_gcc.h ****   #define __INLINE                               inline
  45:Drivers/CMSIS/Include/cmsis_gcc.h **** #endif
  46:Drivers/CMSIS/Include/cmsis_gcc.h **** #ifndef   __STATIC_INLINE
  47:Drivers/CMSIS/Include/cmsis_gcc.h ****   #define __STATIC_INLINE                        static inline
  48:Drivers/CMSIS/Include/cmsis_gcc.h **** #endif
  49:Drivers/CMSIS/Include/cmsis_gcc.h **** #ifndef   __STATIC_FORCEINLINE
  50:Drivers/CMSIS/Include/cmsis_gcc.h ****   #define __STATIC_FORCEINLINE                   __attribute__((always_inline)) static inline
  51:Drivers/CMSIS/Include/cmsis_gcc.h **** #endif
  52:Drivers/CMSIS/Include/cmsis_gcc.h **** #ifndef   __NO_RETURN
  53:Drivers/CMSIS/Include/cmsis_gcc.h ****   #define __NO_RETURN                            __attribute__((__noreturn__))
  54:Drivers/CMSIS/Include/cmsis_gcc.h **** #endif
  55:Drivers/CMSIS/Include/cmsis_gcc.h **** #ifndef   __USED
  56:Drivers/CMSIS/Include/cmsis_gcc.h ****   #define __USED                                 __attribute__((used))
  57:Drivers/CMSIS/Include/cmsis_gcc.h **** #endif
  58:Drivers/CMSIS/Include/cmsis_gcc.h **** #ifndef   __WEAK
  59:Drivers/CMSIS/Include/cmsis_gcc.h ****   #define __WEAK                                 __attribute__((weak))
  60:Drivers/CMSIS/Include/cmsis_gcc.h **** #endif
  61:Drivers/CMSIS/Include/cmsis_gcc.h **** #ifndef   __PACKED
  62:Drivers/CMSIS/Include/cmsis_gcc.h ****   #define __PACKED                               __attribute__((packed, aligned(1)))
  63:Drivers/CMSIS/Include/cmsis_gcc.h **** #endif
  64:Drivers/CMSIS/Include/cmsis_gcc.h **** #ifndef   __PACKED_STRUCT
  65:Drivers/CMSIS/Include/cmsis_gcc.h ****   #define __PACKED_STRUCT                        struct __attribute__((packed, aligned(1)))
  66:Drivers/CMSIS/Include/cmsis_gcc.h **** #endif
  67:Drivers/CMSIS/Include/cmsis_gcc.h **** #ifndef   __PACKED_UNION
  68:Drivers/CMSIS/Include/cmsis_gcc.h ****   #define __PACKED_UNION                         union __attribute__((packed, aligned(1)))
  69:Drivers/CMSIS/Include/cmsis_gcc.h **** #endif
  70:Drivers/CMSIS/Include/cmsis_gcc.h **** #ifndef   __UNALIGNED_UINT32        /* deprecated */
  71:Drivers/CMSIS/Include/cmsis_gcc.h ****   #pragma GCC diagnostic push
  72:Drivers/CMSIS/Include/cmsis_gcc.h ****   #pragma GCC diagnostic ignored "-Wpacked"
  73:Drivers/CMSIS/Include/cmsis_gcc.h ****   #pragma GCC diagnostic ignored "-Wattributes"
  74:Drivers/CMSIS/Include/cmsis_gcc.h ****   struct __attribute__((packed)) T_UINT32 { uint32_t v; };
  75:Drivers/CMSIS/Include/cmsis_gcc.h ****   #pragma GCC diagnostic pop
ARM GAS  C:\Users\bulli\AppData\Local\Temp\ccMLKjFn.s 			page 28


  76:Drivers/CMSIS/Include/cmsis_gcc.h ****   #define __UNALIGNED_UINT32(x)                  (((struct T_UINT32 *)(x))->v)
  77:Drivers/CMSIS/Include/cmsis_gcc.h **** #endif
  78:Drivers/CMSIS/Include/cmsis_gcc.h **** #ifndef   __UNALIGNED_UINT16_WRITE
  79:Drivers/CMSIS/Include/cmsis_gcc.h ****   #pragma GCC diagnostic push
  80:Drivers/CMSIS/Include/cmsis_gcc.h ****   #pragma GCC diagnostic ignored "-Wpacked"
  81:Drivers/CMSIS/Include/cmsis_gcc.h ****   #pragma GCC diagnostic ignored "-Wattributes"
  82:Drivers/CMSIS/Include/cmsis_gcc.h ****   __PACKED_STRUCT T_UINT16_WRITE { uint16_t v; };
  83:Drivers/CMSIS/Include/cmsis_gcc.h ****   #pragma GCC diagnostic pop
  84:Drivers/CMSIS/Include/cmsis_gcc.h ****   #define __UNALIGNED_UINT16_WRITE(addr, val)    (void)((((struct T_UINT16_WRITE *)(void *)(addr))-
  85:Drivers/CMSIS/Include/cmsis_gcc.h **** #endif
  86:Drivers/CMSIS/Include/cmsis_gcc.h **** #ifndef   __UNALIGNED_UINT16_READ
  87:Drivers/CMSIS/Include/cmsis_gcc.h ****   #pragma GCC diagnostic push
  88:Drivers/CMSIS/Include/cmsis_gcc.h ****   #pragma GCC diagnostic ignored "-Wpacked"
  89:Drivers/CMSIS/Include/cmsis_gcc.h ****   #pragma GCC diagnostic ignored "-Wattributes"
  90:Drivers/CMSIS/Include/cmsis_gcc.h ****   __PACKED_STRUCT T_UINT16_READ { uint16_t v; };
  91:Drivers/CMSIS/Include/cmsis_gcc.h ****   #pragma GCC diagnostic pop
  92:Drivers/CMSIS/Include/cmsis_gcc.h ****   #define __UNALIGNED_UINT16_READ(addr)          (((const struct T_UINT16_READ *)(const void *)(add
  93:Drivers/CMSIS/Include/cmsis_gcc.h **** #endif
  94:Drivers/CMSIS/Include/cmsis_gcc.h **** #ifndef   __UNALIGNED_UINT32_WRITE
  95:Drivers/CMSIS/Include/cmsis_gcc.h ****   #pragma GCC diagnostic push
  96:Drivers/CMSIS/Include/cmsis_gcc.h ****   #pragma GCC diagnostic ignored "-Wpacked"
  97:Drivers/CMSIS/Include/cmsis_gcc.h ****   #pragma GCC diagnostic ignored "-Wattributes"
  98:Drivers/CMSIS/Include/cmsis_gcc.h ****   __PACKED_STRUCT T_UINT32_WRITE { uint32_t v; };
  99:Drivers/CMSIS/Include/cmsis_gcc.h ****   #pragma GCC diagnostic pop
 100:Drivers/CMSIS/Include/cmsis_gcc.h ****   #define __UNALIGNED_UINT32_WRITE(addr, val)    (void)((((struct T_UINT32_WRITE *)(void *)(addr))-
 101:Drivers/CMSIS/Include/cmsis_gcc.h **** #endif
 102:Drivers/CMSIS/Include/cmsis_gcc.h **** #ifndef   __UNALIGNED_UINT32_READ
 103:Drivers/CMSIS/Include/cmsis_gcc.h ****   #pragma GCC diagnostic push
 104:Drivers/CMSIS/Include/cmsis_gcc.h ****   #pragma GCC diagnostic ignored "-Wpacked"
 105:Drivers/CMSIS/Include/cmsis_gcc.h ****   #pragma GCC diagnostic ignored "-Wattributes"
 106:Drivers/CMSIS/Include/cmsis_gcc.h ****   __PACKED_STRUCT T_UINT32_READ { uint32_t v; };
 107:Drivers/CMSIS/Include/cmsis_gcc.h ****   #pragma GCC diagnostic pop
 108:Drivers/CMSIS/Include/cmsis_gcc.h ****   #define __UNALIGNED_UINT32_READ(addr)          (((const struct T_UINT32_READ *)(const void *)(add
 109:Drivers/CMSIS/Include/cmsis_gcc.h **** #endif
 110:Drivers/CMSIS/Include/cmsis_gcc.h **** #ifndef   __ALIGNED
 111:Drivers/CMSIS/Include/cmsis_gcc.h ****   #define __ALIGNED(x)                           __attribute__((aligned(x)))
 112:Drivers/CMSIS/Include/cmsis_gcc.h **** #endif
 113:Drivers/CMSIS/Include/cmsis_gcc.h **** #ifndef   __RESTRICT
 114:Drivers/CMSIS/Include/cmsis_gcc.h ****   #define __RESTRICT                             __restrict
 115:Drivers/CMSIS/Include/cmsis_gcc.h **** #endif
 116:Drivers/CMSIS/Include/cmsis_gcc.h **** #ifndef   __COMPILER_BARRIER
 117:Drivers/CMSIS/Include/cmsis_gcc.h ****   #define __COMPILER_BARRIER()                   __ASM volatile("":::"memory")
 118:Drivers/CMSIS/Include/cmsis_gcc.h **** #endif
 119:Drivers/CMSIS/Include/cmsis_gcc.h **** 
 120:Drivers/CMSIS/Include/cmsis_gcc.h **** /* #########################  Startup and Lowlevel Init  ######################## */
 121:Drivers/CMSIS/Include/cmsis_gcc.h **** 
 122:Drivers/CMSIS/Include/cmsis_gcc.h **** #ifndef __PROGRAM_START
 123:Drivers/CMSIS/Include/cmsis_gcc.h **** 
 124:Drivers/CMSIS/Include/cmsis_gcc.h **** /**
 125:Drivers/CMSIS/Include/cmsis_gcc.h ****   \brief   Initializes data and bss sections
 126:Drivers/CMSIS/Include/cmsis_gcc.h ****   \details This default implementations initialized all data and additional bss
 127:Drivers/CMSIS/Include/cmsis_gcc.h ****            sections relying on .copy.table and .zero.table specified properly
 128:Drivers/CMSIS/Include/cmsis_gcc.h ****            in the used linker script.
 129:Drivers/CMSIS/Include/cmsis_gcc.h **** 
 130:Drivers/CMSIS/Include/cmsis_gcc.h ****  */
 131:Drivers/CMSIS/Include/cmsis_gcc.h **** __STATIC_FORCEINLINE __NO_RETURN void __cmsis_start(void)
 132:Drivers/CMSIS/Include/cmsis_gcc.h **** {
ARM GAS  C:\Users\bulli\AppData\Local\Temp\ccMLKjFn.s 			page 29


 133:Drivers/CMSIS/Include/cmsis_gcc.h ****   extern void _start(void) __NO_RETURN;
 134:Drivers/CMSIS/Include/cmsis_gcc.h **** 
 135:Drivers/CMSIS/Include/cmsis_gcc.h ****   typedef struct {
 136:Drivers/CMSIS/Include/cmsis_gcc.h ****     uint32_t const* src;
 137:Drivers/CMSIS/Include/cmsis_gcc.h ****     uint32_t* dest;
 138:Drivers/CMSIS/Include/cmsis_gcc.h ****     uint32_t  wlen;
 139:Drivers/CMSIS/Include/cmsis_gcc.h ****   } __copy_table_t;
 140:Drivers/CMSIS/Include/cmsis_gcc.h **** 
 141:Drivers/CMSIS/Include/cmsis_gcc.h ****   typedef struct {
 142:Drivers/CMSIS/Include/cmsis_gcc.h ****     uint32_t* dest;
 143:Drivers/CMSIS/Include/cmsis_gcc.h ****     uint32_t  wlen;
 144:Drivers/CMSIS/Include/cmsis_gcc.h ****   } __zero_table_t;
 145:Drivers/CMSIS/Include/cmsis_gcc.h **** 
 146:Drivers/CMSIS/Include/cmsis_gcc.h ****   extern const __copy_table_t __copy_table_start__;
 147:Drivers/CMSIS/Include/cmsis_gcc.h ****   extern const __copy_table_t __copy_table_end__;
 148:Drivers/CMSIS/Include/cmsis_gcc.h ****   extern const __zero_table_t __zero_table_start__;
 149:Drivers/CMSIS/Include/cmsis_gcc.h ****   extern const __zero_table_t __zero_table_end__;
 150:Drivers/CMSIS/Include/cmsis_gcc.h **** 
 151:Drivers/CMSIS/Include/cmsis_gcc.h ****   for (__copy_table_t const* pTable = &__copy_table_start__; pTable < &__copy_table_end__; ++pTable
 152:Drivers/CMSIS/Include/cmsis_gcc.h ****     for(uint32_t i=0u; i<pTable->wlen; ++i) {
 153:Drivers/CMSIS/Include/cmsis_gcc.h ****       pTable->dest[i] = pTable->src[i];
 154:Drivers/CMSIS/Include/cmsis_gcc.h ****     }
 155:Drivers/CMSIS/Include/cmsis_gcc.h ****   }
 156:Drivers/CMSIS/Include/cmsis_gcc.h **** 
 157:Drivers/CMSIS/Include/cmsis_gcc.h ****   for (__zero_table_t const* pTable = &__zero_table_start__; pTable < &__zero_table_end__; ++pTable
 158:Drivers/CMSIS/Include/cmsis_gcc.h ****     for(uint32_t i=0u; i<pTable->wlen; ++i) {
 159:Drivers/CMSIS/Include/cmsis_gcc.h ****       pTable->dest[i] = 0u;
 160:Drivers/CMSIS/Include/cmsis_gcc.h ****     }
 161:Drivers/CMSIS/Include/cmsis_gcc.h ****   }
 162:Drivers/CMSIS/Include/cmsis_gcc.h **** 
 163:Drivers/CMSIS/Include/cmsis_gcc.h ****   _start();
 164:Drivers/CMSIS/Include/cmsis_gcc.h **** }
 165:Drivers/CMSIS/Include/cmsis_gcc.h **** 
 166:Drivers/CMSIS/Include/cmsis_gcc.h **** #define __PROGRAM_START           __cmsis_start
 167:Drivers/CMSIS/Include/cmsis_gcc.h **** #endif
 168:Drivers/CMSIS/Include/cmsis_gcc.h **** 
 169:Drivers/CMSIS/Include/cmsis_gcc.h **** #ifndef __INITIAL_SP
 170:Drivers/CMSIS/Include/cmsis_gcc.h **** #define __INITIAL_SP              __StackTop
 171:Drivers/CMSIS/Include/cmsis_gcc.h **** #endif
 172:Drivers/CMSIS/Include/cmsis_gcc.h **** 
 173:Drivers/CMSIS/Include/cmsis_gcc.h **** #ifndef __STACK_LIMIT
 174:Drivers/CMSIS/Include/cmsis_gcc.h **** #define __STACK_LIMIT             __StackLimit
 175:Drivers/CMSIS/Include/cmsis_gcc.h **** #endif
 176:Drivers/CMSIS/Include/cmsis_gcc.h **** 
 177:Drivers/CMSIS/Include/cmsis_gcc.h **** #ifndef __VECTOR_TABLE
 178:Drivers/CMSIS/Include/cmsis_gcc.h **** #define __VECTOR_TABLE            __Vectors
 179:Drivers/CMSIS/Include/cmsis_gcc.h **** #endif
 180:Drivers/CMSIS/Include/cmsis_gcc.h **** 
 181:Drivers/CMSIS/Include/cmsis_gcc.h **** #ifndef __VECTOR_TABLE_ATTRIBUTE
 182:Drivers/CMSIS/Include/cmsis_gcc.h **** #define __VECTOR_TABLE_ATTRIBUTE  __attribute__((used, section(".vectors")))
 183:Drivers/CMSIS/Include/cmsis_gcc.h **** #endif
 184:Drivers/CMSIS/Include/cmsis_gcc.h **** 
 185:Drivers/CMSIS/Include/cmsis_gcc.h **** #if defined (__ARM_FEATURE_CMSE) && (__ARM_FEATURE_CMSE == 3U)
 186:Drivers/CMSIS/Include/cmsis_gcc.h **** #ifndef __STACK_SEAL
 187:Drivers/CMSIS/Include/cmsis_gcc.h **** #define __STACK_SEAL              __StackSeal
 188:Drivers/CMSIS/Include/cmsis_gcc.h **** #endif
 189:Drivers/CMSIS/Include/cmsis_gcc.h **** 
ARM GAS  C:\Users\bulli\AppData\Local\Temp\ccMLKjFn.s 			page 30


 190:Drivers/CMSIS/Include/cmsis_gcc.h **** #ifndef __TZ_STACK_SEAL_SIZE
 191:Drivers/CMSIS/Include/cmsis_gcc.h **** #define __TZ_STACK_SEAL_SIZE      8U
 192:Drivers/CMSIS/Include/cmsis_gcc.h **** #endif
 193:Drivers/CMSIS/Include/cmsis_gcc.h **** 
 194:Drivers/CMSIS/Include/cmsis_gcc.h **** #ifndef __TZ_STACK_SEAL_VALUE
 195:Drivers/CMSIS/Include/cmsis_gcc.h **** #define __TZ_STACK_SEAL_VALUE     0xFEF5EDA5FEF5EDA5ULL
 196:Drivers/CMSIS/Include/cmsis_gcc.h **** #endif
 197:Drivers/CMSIS/Include/cmsis_gcc.h **** 
 198:Drivers/CMSIS/Include/cmsis_gcc.h **** 
 199:Drivers/CMSIS/Include/cmsis_gcc.h **** __STATIC_FORCEINLINE void __TZ_set_STACKSEAL_S (uint32_t* stackTop) {
 200:Drivers/CMSIS/Include/cmsis_gcc.h ****   *((uint64_t *)stackTop) = __TZ_STACK_SEAL_VALUE;
 201:Drivers/CMSIS/Include/cmsis_gcc.h **** }
 202:Drivers/CMSIS/Include/cmsis_gcc.h **** #endif
 203:Drivers/CMSIS/Include/cmsis_gcc.h **** 
 204:Drivers/CMSIS/Include/cmsis_gcc.h **** 
 205:Drivers/CMSIS/Include/cmsis_gcc.h **** /* ##########################  Core Instruction Access  ######################### */
 206:Drivers/CMSIS/Include/cmsis_gcc.h **** /** \defgroup CMSIS_Core_InstructionInterface CMSIS Core Instruction Interface
 207:Drivers/CMSIS/Include/cmsis_gcc.h ****   Access to dedicated instructions
 208:Drivers/CMSIS/Include/cmsis_gcc.h ****   @{
 209:Drivers/CMSIS/Include/cmsis_gcc.h **** */
 210:Drivers/CMSIS/Include/cmsis_gcc.h **** 
 211:Drivers/CMSIS/Include/cmsis_gcc.h **** /* Define macros for porting to both thumb1 and thumb2.
 212:Drivers/CMSIS/Include/cmsis_gcc.h ****  * For thumb1, use low register (r0-r7), specified by constraint "l"
 213:Drivers/CMSIS/Include/cmsis_gcc.h ****  * Otherwise, use general registers, specified by constraint "r" */
 214:Drivers/CMSIS/Include/cmsis_gcc.h **** #if defined (__thumb__) && !defined (__thumb2__)
 215:Drivers/CMSIS/Include/cmsis_gcc.h **** #define __CMSIS_GCC_OUT_REG(r) "=l" (r)
 216:Drivers/CMSIS/Include/cmsis_gcc.h **** #define __CMSIS_GCC_RW_REG(r) "+l" (r)
 217:Drivers/CMSIS/Include/cmsis_gcc.h **** #define __CMSIS_GCC_USE_REG(r) "l" (r)
 218:Drivers/CMSIS/Include/cmsis_gcc.h **** #else
 219:Drivers/CMSIS/Include/cmsis_gcc.h **** #define __CMSIS_GCC_OUT_REG(r) "=r" (r)
 220:Drivers/CMSIS/Include/cmsis_gcc.h **** #define __CMSIS_GCC_RW_REG(r) "+r" (r)
 221:Drivers/CMSIS/Include/cmsis_gcc.h **** #define __CMSIS_GCC_USE_REG(r) "r" (r)
 222:Drivers/CMSIS/Include/cmsis_gcc.h **** #endif
 223:Drivers/CMSIS/Include/cmsis_gcc.h **** 
 224:Drivers/CMSIS/Include/cmsis_gcc.h **** /**
 225:Drivers/CMSIS/Include/cmsis_gcc.h ****   \brief   No Operation
 226:Drivers/CMSIS/Include/cmsis_gcc.h ****   \details No Operation does nothing. This instruction can be used for code alignment purposes.
 227:Drivers/CMSIS/Include/cmsis_gcc.h ****  */
 228:Drivers/CMSIS/Include/cmsis_gcc.h **** #define __NOP()                             __ASM volatile ("nop")
 229:Drivers/CMSIS/Include/cmsis_gcc.h **** 
 230:Drivers/CMSIS/Include/cmsis_gcc.h **** /**
 231:Drivers/CMSIS/Include/cmsis_gcc.h ****   \brief   Wait For Interrupt
 232:Drivers/CMSIS/Include/cmsis_gcc.h ****   \details Wait For Interrupt is a hint instruction that suspends execution until one of a number o
 233:Drivers/CMSIS/Include/cmsis_gcc.h ****  */
 234:Drivers/CMSIS/Include/cmsis_gcc.h **** #define __WFI()                             __ASM volatile ("wfi":::"memory")
 235:Drivers/CMSIS/Include/cmsis_gcc.h **** 
 236:Drivers/CMSIS/Include/cmsis_gcc.h **** 
 237:Drivers/CMSIS/Include/cmsis_gcc.h **** /**
 238:Drivers/CMSIS/Include/cmsis_gcc.h ****   \brief   Wait For Event
 239:Drivers/CMSIS/Include/cmsis_gcc.h ****   \details Wait For Event is a hint instruction that permits the processor to enter
 240:Drivers/CMSIS/Include/cmsis_gcc.h ****            a low-power state until one of a number of events occurs.
 241:Drivers/CMSIS/Include/cmsis_gcc.h ****  */
 242:Drivers/CMSIS/Include/cmsis_gcc.h **** #define __WFE()                             __ASM volatile ("wfe":::"memory")
 243:Drivers/CMSIS/Include/cmsis_gcc.h **** 
 244:Drivers/CMSIS/Include/cmsis_gcc.h **** 
 245:Drivers/CMSIS/Include/cmsis_gcc.h **** /**
 246:Drivers/CMSIS/Include/cmsis_gcc.h ****   \brief   Send Event
ARM GAS  C:\Users\bulli\AppData\Local\Temp\ccMLKjFn.s 			page 31


 247:Drivers/CMSIS/Include/cmsis_gcc.h ****   \details Send Event is a hint instruction. It causes an event to be signaled to the CPU.
 248:Drivers/CMSIS/Include/cmsis_gcc.h ****  */
 249:Drivers/CMSIS/Include/cmsis_gcc.h **** #define __SEV()                             __ASM volatile ("sev")
 250:Drivers/CMSIS/Include/cmsis_gcc.h **** 
 251:Drivers/CMSIS/Include/cmsis_gcc.h **** 
 252:Drivers/CMSIS/Include/cmsis_gcc.h **** /**
 253:Drivers/CMSIS/Include/cmsis_gcc.h ****   \brief   Instruction Synchronization Barrier
 254:Drivers/CMSIS/Include/cmsis_gcc.h ****   \details Instruction Synchronization Barrier flushes the pipeline in the processor,
 255:Drivers/CMSIS/Include/cmsis_gcc.h ****            so that all instructions following the ISB are fetched from cache or memory,
 256:Drivers/CMSIS/Include/cmsis_gcc.h ****            after the instruction has been completed.
 257:Drivers/CMSIS/Include/cmsis_gcc.h ****  */
 258:Drivers/CMSIS/Include/cmsis_gcc.h **** __STATIC_FORCEINLINE void __ISB(void)
 259:Drivers/CMSIS/Include/cmsis_gcc.h **** {
 260:Drivers/CMSIS/Include/cmsis_gcc.h ****   __ASM volatile ("isb 0xF":::"memory");
 261:Drivers/CMSIS/Include/cmsis_gcc.h **** }
 262:Drivers/CMSIS/Include/cmsis_gcc.h **** 
 263:Drivers/CMSIS/Include/cmsis_gcc.h **** 
 264:Drivers/CMSIS/Include/cmsis_gcc.h **** /**
 265:Drivers/CMSIS/Include/cmsis_gcc.h ****   \brief   Data Synchronization Barrier
 266:Drivers/CMSIS/Include/cmsis_gcc.h ****   \details Acts as a special kind of Data Memory Barrier.
 267:Drivers/CMSIS/Include/cmsis_gcc.h ****            It completes when all explicit memory accesses before this instruction complete.
 268:Drivers/CMSIS/Include/cmsis_gcc.h ****  */
 269:Drivers/CMSIS/Include/cmsis_gcc.h **** __STATIC_FORCEINLINE void __DSB(void)
 270:Drivers/CMSIS/Include/cmsis_gcc.h **** {
 271:Drivers/CMSIS/Include/cmsis_gcc.h ****   __ASM volatile ("dsb 0xF":::"memory");
 272:Drivers/CMSIS/Include/cmsis_gcc.h **** }
 273:Drivers/CMSIS/Include/cmsis_gcc.h **** 
 274:Drivers/CMSIS/Include/cmsis_gcc.h **** 
 275:Drivers/CMSIS/Include/cmsis_gcc.h **** /**
 276:Drivers/CMSIS/Include/cmsis_gcc.h ****   \brief   Data Memory Barrier
 277:Drivers/CMSIS/Include/cmsis_gcc.h ****   \details Ensures the apparent order of the explicit memory operations before
 278:Drivers/CMSIS/Include/cmsis_gcc.h ****            and after the instruction, without ensuring their completion.
 279:Drivers/CMSIS/Include/cmsis_gcc.h ****  */
 280:Drivers/CMSIS/Include/cmsis_gcc.h **** __STATIC_FORCEINLINE void __DMB(void)
 281:Drivers/CMSIS/Include/cmsis_gcc.h **** {
 282:Drivers/CMSIS/Include/cmsis_gcc.h ****   __ASM volatile ("dmb 0xF":::"memory");
 283:Drivers/CMSIS/Include/cmsis_gcc.h **** }
 284:Drivers/CMSIS/Include/cmsis_gcc.h **** 
 285:Drivers/CMSIS/Include/cmsis_gcc.h **** 
 286:Drivers/CMSIS/Include/cmsis_gcc.h **** /**
 287:Drivers/CMSIS/Include/cmsis_gcc.h ****   \brief   Reverse byte order (32 bit)
 288:Drivers/CMSIS/Include/cmsis_gcc.h ****   \details Reverses the byte order in unsigned integer value. For example, 0x12345678 becomes 0x785
 289:Drivers/CMSIS/Include/cmsis_gcc.h ****   \param [in]    value  Value to reverse
 290:Drivers/CMSIS/Include/cmsis_gcc.h ****   \return               Reversed value
 291:Drivers/CMSIS/Include/cmsis_gcc.h ****  */
 292:Drivers/CMSIS/Include/cmsis_gcc.h **** __STATIC_FORCEINLINE uint32_t __REV(uint32_t value)
 293:Drivers/CMSIS/Include/cmsis_gcc.h **** {
 294:Drivers/CMSIS/Include/cmsis_gcc.h **** #if (__GNUC__ > 4) || (__GNUC__ == 4 && __GNUC_MINOR__ >= 5)
 295:Drivers/CMSIS/Include/cmsis_gcc.h ****   return __builtin_bswap32(value);
 296:Drivers/CMSIS/Include/cmsis_gcc.h **** #else
 297:Drivers/CMSIS/Include/cmsis_gcc.h ****   uint32_t result;
 298:Drivers/CMSIS/Include/cmsis_gcc.h **** 
 299:Drivers/CMSIS/Include/cmsis_gcc.h ****   __ASM ("rev %0, %1" : __CMSIS_GCC_OUT_REG (result) : __CMSIS_GCC_USE_REG (value) );
 300:Drivers/CMSIS/Include/cmsis_gcc.h ****   return result;
 301:Drivers/CMSIS/Include/cmsis_gcc.h **** #endif
 302:Drivers/CMSIS/Include/cmsis_gcc.h **** }
 303:Drivers/CMSIS/Include/cmsis_gcc.h **** 
ARM GAS  C:\Users\bulli\AppData\Local\Temp\ccMLKjFn.s 			page 32


 304:Drivers/CMSIS/Include/cmsis_gcc.h **** 
 305:Drivers/CMSIS/Include/cmsis_gcc.h **** /**
 306:Drivers/CMSIS/Include/cmsis_gcc.h ****   \brief   Reverse byte order (16 bit)
 307:Drivers/CMSIS/Include/cmsis_gcc.h ****   \details Reverses the byte order within each halfword of a word. For example, 0x12345678 becomes 
 308:Drivers/CMSIS/Include/cmsis_gcc.h ****   \param [in]    value  Value to reverse
 309:Drivers/CMSIS/Include/cmsis_gcc.h ****   \return               Reversed value
 310:Drivers/CMSIS/Include/cmsis_gcc.h ****  */
 311:Drivers/CMSIS/Include/cmsis_gcc.h **** __STATIC_FORCEINLINE uint32_t __REV16(uint32_t value)
 312:Drivers/CMSIS/Include/cmsis_gcc.h **** {
 313:Drivers/CMSIS/Include/cmsis_gcc.h ****   uint32_t result;
 314:Drivers/CMSIS/Include/cmsis_gcc.h **** 
 315:Drivers/CMSIS/Include/cmsis_gcc.h ****   __ASM ("rev16 %0, %1" : __CMSIS_GCC_OUT_REG (result) : __CMSIS_GCC_USE_REG (value) );
 316:Drivers/CMSIS/Include/cmsis_gcc.h ****   return result;
 317:Drivers/CMSIS/Include/cmsis_gcc.h **** }
 318:Drivers/CMSIS/Include/cmsis_gcc.h **** 
 319:Drivers/CMSIS/Include/cmsis_gcc.h **** 
 320:Drivers/CMSIS/Include/cmsis_gcc.h **** /**
 321:Drivers/CMSIS/Include/cmsis_gcc.h ****   \brief   Reverse byte order (16 bit)
 322:Drivers/CMSIS/Include/cmsis_gcc.h ****   \details Reverses the byte order in a 16-bit value and returns the signed 16-bit result. For exam
 323:Drivers/CMSIS/Include/cmsis_gcc.h ****   \param [in]    value  Value to reverse
 324:Drivers/CMSIS/Include/cmsis_gcc.h ****   \return               Reversed value
 325:Drivers/CMSIS/Include/cmsis_gcc.h ****  */
 326:Drivers/CMSIS/Include/cmsis_gcc.h **** __STATIC_FORCEINLINE int16_t __REVSH(int16_t value)
 327:Drivers/CMSIS/Include/cmsis_gcc.h **** {
 328:Drivers/CMSIS/Include/cmsis_gcc.h **** #if (__GNUC__ > 4) || (__GNUC__ == 4 && __GNUC_MINOR__ >= 8)
 329:Drivers/CMSIS/Include/cmsis_gcc.h ****   return (int16_t)__builtin_bswap16(value);
 330:Drivers/CMSIS/Include/cmsis_gcc.h **** #else
 331:Drivers/CMSIS/Include/cmsis_gcc.h ****   int16_t result;
 332:Drivers/CMSIS/Include/cmsis_gcc.h **** 
 333:Drivers/CMSIS/Include/cmsis_gcc.h ****   __ASM ("revsh %0, %1" : __CMSIS_GCC_OUT_REG (result) : __CMSIS_GCC_USE_REG (value) );
 334:Drivers/CMSIS/Include/cmsis_gcc.h ****   return result;
 335:Drivers/CMSIS/Include/cmsis_gcc.h **** #endif
 336:Drivers/CMSIS/Include/cmsis_gcc.h **** }
 337:Drivers/CMSIS/Include/cmsis_gcc.h **** 
 338:Drivers/CMSIS/Include/cmsis_gcc.h **** 
 339:Drivers/CMSIS/Include/cmsis_gcc.h **** /**
 340:Drivers/CMSIS/Include/cmsis_gcc.h ****   \brief   Rotate Right in unsigned value (32 bit)
 341:Drivers/CMSIS/Include/cmsis_gcc.h ****   \details Rotate Right (immediate) provides the value of the contents of a register rotated by a v
 342:Drivers/CMSIS/Include/cmsis_gcc.h ****   \param [in]    op1  Value to rotate
 343:Drivers/CMSIS/Include/cmsis_gcc.h ****   \param [in]    op2  Number of Bits to rotate
 344:Drivers/CMSIS/Include/cmsis_gcc.h ****   \return               Rotated value
 345:Drivers/CMSIS/Include/cmsis_gcc.h ****  */
 346:Drivers/CMSIS/Include/cmsis_gcc.h **** __STATIC_FORCEINLINE uint32_t __ROR(uint32_t op1, uint32_t op2)
 347:Drivers/CMSIS/Include/cmsis_gcc.h **** {
 348:Drivers/CMSIS/Include/cmsis_gcc.h ****   op2 %= 32U;
 349:Drivers/CMSIS/Include/cmsis_gcc.h ****   if (op2 == 0U)
 350:Drivers/CMSIS/Include/cmsis_gcc.h ****   {
 351:Drivers/CMSIS/Include/cmsis_gcc.h ****     return op1;
 352:Drivers/CMSIS/Include/cmsis_gcc.h ****   }
 353:Drivers/CMSIS/Include/cmsis_gcc.h ****   return (op1 >> op2) | (op1 << (32U - op2));
 354:Drivers/CMSIS/Include/cmsis_gcc.h **** }
 355:Drivers/CMSIS/Include/cmsis_gcc.h **** 
 356:Drivers/CMSIS/Include/cmsis_gcc.h **** 
 357:Drivers/CMSIS/Include/cmsis_gcc.h **** /**
 358:Drivers/CMSIS/Include/cmsis_gcc.h ****   \brief   Breakpoint
 359:Drivers/CMSIS/Include/cmsis_gcc.h ****   \details Causes the processor to enter Debug state.
 360:Drivers/CMSIS/Include/cmsis_gcc.h ****            Debug tools can use this to investigate system state when the instruction at a particula
ARM GAS  C:\Users\bulli\AppData\Local\Temp\ccMLKjFn.s 			page 33


 361:Drivers/CMSIS/Include/cmsis_gcc.h ****   \param [in]    value  is ignored by the processor.
 362:Drivers/CMSIS/Include/cmsis_gcc.h ****                  If required, a debugger can use it to store additional information about the break
 363:Drivers/CMSIS/Include/cmsis_gcc.h ****  */
 364:Drivers/CMSIS/Include/cmsis_gcc.h **** #define __BKPT(value)                       __ASM volatile ("bkpt "#value)
 365:Drivers/CMSIS/Include/cmsis_gcc.h **** 
 366:Drivers/CMSIS/Include/cmsis_gcc.h **** 
 367:Drivers/CMSIS/Include/cmsis_gcc.h **** /**
 368:Drivers/CMSIS/Include/cmsis_gcc.h ****   \brief   Reverse bit order of value
 369:Drivers/CMSIS/Include/cmsis_gcc.h ****   \details Reverses the bit order of the given value.
 370:Drivers/CMSIS/Include/cmsis_gcc.h ****   \param [in]    value  Value to reverse
 371:Drivers/CMSIS/Include/cmsis_gcc.h ****   \return               Reversed value
 372:Drivers/CMSIS/Include/cmsis_gcc.h ****  */
 373:Drivers/CMSIS/Include/cmsis_gcc.h **** __STATIC_FORCEINLINE uint32_t __RBIT(uint32_t value)
 374:Drivers/CMSIS/Include/cmsis_gcc.h **** {
 375:Drivers/CMSIS/Include/cmsis_gcc.h ****   uint32_t result;
 376:Drivers/CMSIS/Include/cmsis_gcc.h **** 
 377:Drivers/CMSIS/Include/cmsis_gcc.h **** #if ((defined (__ARM_ARCH_7M__      ) && (__ARM_ARCH_7M__      == 1)) || \
 378:Drivers/CMSIS/Include/cmsis_gcc.h ****      (defined (__ARM_ARCH_7EM__     ) && (__ARM_ARCH_7EM__     == 1)) || \
 379:Drivers/CMSIS/Include/cmsis_gcc.h ****      (defined (__ARM_ARCH_8M_MAIN__ ) && (__ARM_ARCH_8M_MAIN__ == 1))    )
 380:Drivers/CMSIS/Include/cmsis_gcc.h ****    __ASM ("rbit %0, %1" : "=r" (result) : "r" (value) );
 381:Drivers/CMSIS/Include/cmsis_gcc.h **** #else
 382:Drivers/CMSIS/Include/cmsis_gcc.h ****   uint32_t s = (4U /*sizeof(v)*/ * 8U) - 1U; /* extra shift needed at end */
 383:Drivers/CMSIS/Include/cmsis_gcc.h **** 
 384:Drivers/CMSIS/Include/cmsis_gcc.h ****   result = value;                      /* r will be reversed bits of v; first get LSB of v */
 385:Drivers/CMSIS/Include/cmsis_gcc.h ****   for (value >>= 1U; value != 0U; value >>= 1U)
 386:Drivers/CMSIS/Include/cmsis_gcc.h ****   {
 387:Drivers/CMSIS/Include/cmsis_gcc.h ****     result <<= 1U;
 388:Drivers/CMSIS/Include/cmsis_gcc.h ****     result |= value & 1U;
 389:Drivers/CMSIS/Include/cmsis_gcc.h ****     s--;
 390:Drivers/CMSIS/Include/cmsis_gcc.h ****   }
 391:Drivers/CMSIS/Include/cmsis_gcc.h ****   result <<= s;                        /* shift when v's highest bits are zero */
 392:Drivers/CMSIS/Include/cmsis_gcc.h **** #endif
 393:Drivers/CMSIS/Include/cmsis_gcc.h ****   return result;
 394:Drivers/CMSIS/Include/cmsis_gcc.h **** }
 395:Drivers/CMSIS/Include/cmsis_gcc.h **** 
 396:Drivers/CMSIS/Include/cmsis_gcc.h **** 
 397:Drivers/CMSIS/Include/cmsis_gcc.h **** /**
 398:Drivers/CMSIS/Include/cmsis_gcc.h ****   \brief   Count leading zeros
 399:Drivers/CMSIS/Include/cmsis_gcc.h ****   \details Counts the number of leading zeros of a data value.
 400:Drivers/CMSIS/Include/cmsis_gcc.h ****   \param [in]  value  Value to count the leading zeros
 401:Drivers/CMSIS/Include/cmsis_gcc.h ****   \return             number of leading zeros in value
 402:Drivers/CMSIS/Include/cmsis_gcc.h ****  */
 403:Drivers/CMSIS/Include/cmsis_gcc.h **** __STATIC_FORCEINLINE uint8_t __CLZ(uint32_t value)
 404:Drivers/CMSIS/Include/cmsis_gcc.h **** {
 405:Drivers/CMSIS/Include/cmsis_gcc.h ****   /* Even though __builtin_clz produces a CLZ instruction on ARM, formally
 406:Drivers/CMSIS/Include/cmsis_gcc.h ****      __builtin_clz(0) is undefined behaviour, so handle this case specially.
 407:Drivers/CMSIS/Include/cmsis_gcc.h ****      This guarantees ARM-compatible results if happening to compile on a non-ARM
 408:Drivers/CMSIS/Include/cmsis_gcc.h ****      target, and ensures the compiler doesn't decide to activate any
 409:Drivers/CMSIS/Include/cmsis_gcc.h ****      optimisations using the logic "value was passed to __builtin_clz, so it
 410:Drivers/CMSIS/Include/cmsis_gcc.h ****      is non-zero".
 411:Drivers/CMSIS/Include/cmsis_gcc.h ****      ARM GCC 7.3 and possibly earlier will optimise this test away, leaving a
 412:Drivers/CMSIS/Include/cmsis_gcc.h ****      single CLZ instruction.
 413:Drivers/CMSIS/Include/cmsis_gcc.h ****    */
 414:Drivers/CMSIS/Include/cmsis_gcc.h ****   if (value == 0U)
 415:Drivers/CMSIS/Include/cmsis_gcc.h ****   {
 416:Drivers/CMSIS/Include/cmsis_gcc.h ****     return 32U;
 417:Drivers/CMSIS/Include/cmsis_gcc.h ****   }
ARM GAS  C:\Users\bulli\AppData\Local\Temp\ccMLKjFn.s 			page 34


 418:Drivers/CMSIS/Include/cmsis_gcc.h ****   return __builtin_clz(value);
 419:Drivers/CMSIS/Include/cmsis_gcc.h **** }
 420:Drivers/CMSIS/Include/cmsis_gcc.h **** 
 421:Drivers/CMSIS/Include/cmsis_gcc.h **** 
 422:Drivers/CMSIS/Include/cmsis_gcc.h **** #if ((defined (__ARM_ARCH_7M__      ) && (__ARM_ARCH_7M__      == 1)) || \
 423:Drivers/CMSIS/Include/cmsis_gcc.h ****      (defined (__ARM_ARCH_7EM__     ) && (__ARM_ARCH_7EM__     == 1)) || \
 424:Drivers/CMSIS/Include/cmsis_gcc.h ****      (defined (__ARM_ARCH_8M_MAIN__ ) && (__ARM_ARCH_8M_MAIN__ == 1)) || \
 425:Drivers/CMSIS/Include/cmsis_gcc.h ****      (defined (__ARM_ARCH_8M_BASE__ ) && (__ARM_ARCH_8M_BASE__ == 1))    )
 426:Drivers/CMSIS/Include/cmsis_gcc.h **** /**
 427:Drivers/CMSIS/Include/cmsis_gcc.h ****   \brief   LDR Exclusive (8 bit)
 428:Drivers/CMSIS/Include/cmsis_gcc.h ****   \details Executes a exclusive LDR instruction for 8 bit value.
 429:Drivers/CMSIS/Include/cmsis_gcc.h ****   \param [in]    ptr  Pointer to data
 430:Drivers/CMSIS/Include/cmsis_gcc.h ****   \return             value of type uint8_t at (*ptr)
 431:Drivers/CMSIS/Include/cmsis_gcc.h ****  */
 432:Drivers/CMSIS/Include/cmsis_gcc.h **** __STATIC_FORCEINLINE uint8_t __LDREXB(volatile uint8_t *addr)
 433:Drivers/CMSIS/Include/cmsis_gcc.h **** {
 434:Drivers/CMSIS/Include/cmsis_gcc.h ****     uint32_t result;
 435:Drivers/CMSIS/Include/cmsis_gcc.h **** 
 436:Drivers/CMSIS/Include/cmsis_gcc.h **** #if (__GNUC__ > 4) || (__GNUC__ == 4 && __GNUC_MINOR__ >= 8)
 437:Drivers/CMSIS/Include/cmsis_gcc.h ****    __ASM volatile ("ldrexb %0, %1" : "=r" (result) : "Q" (*addr) );
 438:Drivers/CMSIS/Include/cmsis_gcc.h **** #else
 439:Drivers/CMSIS/Include/cmsis_gcc.h ****     /* Prior to GCC 4.8, "Q" will be expanded to [rx, #0] which is not
 440:Drivers/CMSIS/Include/cmsis_gcc.h ****        accepted by assembler. So has to use following less efficient pattern.
 441:Drivers/CMSIS/Include/cmsis_gcc.h ****     */
 442:Drivers/CMSIS/Include/cmsis_gcc.h ****    __ASM volatile ("ldrexb %0, [%1]" : "=r" (result) : "r" (addr) : "memory" );
 443:Drivers/CMSIS/Include/cmsis_gcc.h **** #endif
 444:Drivers/CMSIS/Include/cmsis_gcc.h ****    return ((uint8_t) result);    /* Add explicit type cast here */
 445:Drivers/CMSIS/Include/cmsis_gcc.h **** }
 446:Drivers/CMSIS/Include/cmsis_gcc.h **** 
 447:Drivers/CMSIS/Include/cmsis_gcc.h **** 
 448:Drivers/CMSIS/Include/cmsis_gcc.h **** /**
 449:Drivers/CMSIS/Include/cmsis_gcc.h ****   \brief   LDR Exclusive (16 bit)
 450:Drivers/CMSIS/Include/cmsis_gcc.h ****   \details Executes a exclusive LDR instruction for 16 bit values.
 451:Drivers/CMSIS/Include/cmsis_gcc.h ****   \param [in]    ptr  Pointer to data
 452:Drivers/CMSIS/Include/cmsis_gcc.h ****   \return        value of type uint16_t at (*ptr)
 453:Drivers/CMSIS/Include/cmsis_gcc.h ****  */
 454:Drivers/CMSIS/Include/cmsis_gcc.h **** __STATIC_FORCEINLINE uint16_t __LDREXH(volatile uint16_t *addr)
 455:Drivers/CMSIS/Include/cmsis_gcc.h **** {
 456:Drivers/CMSIS/Include/cmsis_gcc.h ****     uint32_t result;
 457:Drivers/CMSIS/Include/cmsis_gcc.h **** 
 458:Drivers/CMSIS/Include/cmsis_gcc.h **** #if (__GNUC__ > 4) || (__GNUC__ == 4 && __GNUC_MINOR__ >= 8)
 459:Drivers/CMSIS/Include/cmsis_gcc.h ****    __ASM volatile ("ldrexh %0, %1" : "=r" (result) : "Q" (*addr) );
 460:Drivers/CMSIS/Include/cmsis_gcc.h **** #else
 461:Drivers/CMSIS/Include/cmsis_gcc.h ****     /* Prior to GCC 4.8, "Q" will be expanded to [rx, #0] which is not
 462:Drivers/CMSIS/Include/cmsis_gcc.h ****        accepted by assembler. So has to use following less efficient pattern.
 463:Drivers/CMSIS/Include/cmsis_gcc.h ****     */
 464:Drivers/CMSIS/Include/cmsis_gcc.h ****    __ASM volatile ("ldrexh %0, [%1]" : "=r" (result) : "r" (addr) : "memory" );
 465:Drivers/CMSIS/Include/cmsis_gcc.h **** #endif
 466:Drivers/CMSIS/Include/cmsis_gcc.h ****    return ((uint16_t) result);    /* Add explicit type cast here */
 467:Drivers/CMSIS/Include/cmsis_gcc.h **** }
 468:Drivers/CMSIS/Include/cmsis_gcc.h **** 
 469:Drivers/CMSIS/Include/cmsis_gcc.h **** 
 470:Drivers/CMSIS/Include/cmsis_gcc.h **** /**
 471:Drivers/CMSIS/Include/cmsis_gcc.h ****   \brief   LDR Exclusive (32 bit)
 472:Drivers/CMSIS/Include/cmsis_gcc.h ****   \details Executes a exclusive LDR instruction for 32 bit values.
 473:Drivers/CMSIS/Include/cmsis_gcc.h ****   \param [in]    ptr  Pointer to data
 474:Drivers/CMSIS/Include/cmsis_gcc.h ****   \return        value of type uint32_t at (*ptr)
ARM GAS  C:\Users\bulli\AppData\Local\Temp\ccMLKjFn.s 			page 35


 475:Drivers/CMSIS/Include/cmsis_gcc.h ****  */
 476:Drivers/CMSIS/Include/cmsis_gcc.h **** __STATIC_FORCEINLINE uint32_t __LDREXW(volatile uint32_t *addr)
 477:Drivers/CMSIS/Include/cmsis_gcc.h **** {
 478:Drivers/CMSIS/Include/cmsis_gcc.h ****     uint32_t result;
 479:Drivers/CMSIS/Include/cmsis_gcc.h **** 
 480:Drivers/CMSIS/Include/cmsis_gcc.h ****    __ASM volatile ("ldrex %0, %1" : "=r" (result) : "Q" (*addr) );
 481:Drivers/CMSIS/Include/cmsis_gcc.h ****    return(result);
 482:Drivers/CMSIS/Include/cmsis_gcc.h **** }
 483:Drivers/CMSIS/Include/cmsis_gcc.h **** 
 484:Drivers/CMSIS/Include/cmsis_gcc.h **** 
 485:Drivers/CMSIS/Include/cmsis_gcc.h **** /**
 486:Drivers/CMSIS/Include/cmsis_gcc.h ****   \brief   STR Exclusive (8 bit)
 487:Drivers/CMSIS/Include/cmsis_gcc.h ****   \details Executes a exclusive STR instruction for 8 bit values.
 488:Drivers/CMSIS/Include/cmsis_gcc.h ****   \param [in]  value  Value to store
 489:Drivers/CMSIS/Include/cmsis_gcc.h ****   \param [in]    ptr  Pointer to location
 490:Drivers/CMSIS/Include/cmsis_gcc.h ****   \return          0  Function succeeded
 491:Drivers/CMSIS/Include/cmsis_gcc.h ****   \return          1  Function failed
 492:Drivers/CMSIS/Include/cmsis_gcc.h ****  */
 493:Drivers/CMSIS/Include/cmsis_gcc.h **** __STATIC_FORCEINLINE uint32_t __STREXB(uint8_t value, volatile uint8_t *addr)
 494:Drivers/CMSIS/Include/cmsis_gcc.h **** {
 495:Drivers/CMSIS/Include/cmsis_gcc.h ****    uint32_t result;
 496:Drivers/CMSIS/Include/cmsis_gcc.h **** 
 497:Drivers/CMSIS/Include/cmsis_gcc.h ****    __ASM volatile ("strexb %0, %2, %1" : "=&r" (result), "=Q" (*addr) : "r" ((uint32_t)value) );
 498:Drivers/CMSIS/Include/cmsis_gcc.h ****    return(result);
 499:Drivers/CMSIS/Include/cmsis_gcc.h **** }
 500:Drivers/CMSIS/Include/cmsis_gcc.h **** 
 501:Drivers/CMSIS/Include/cmsis_gcc.h **** 
 502:Drivers/CMSIS/Include/cmsis_gcc.h **** /**
 503:Drivers/CMSIS/Include/cmsis_gcc.h ****   \brief   STR Exclusive (16 bit)
 504:Drivers/CMSIS/Include/cmsis_gcc.h ****   \details Executes a exclusive STR instruction for 16 bit values.
 505:Drivers/CMSIS/Include/cmsis_gcc.h ****   \param [in]  value  Value to store
 506:Drivers/CMSIS/Include/cmsis_gcc.h ****   \param [in]    ptr  Pointer to location
 507:Drivers/CMSIS/Include/cmsis_gcc.h ****   \return          0  Function succeeded
 508:Drivers/CMSIS/Include/cmsis_gcc.h ****   \return          1  Function failed
 509:Drivers/CMSIS/Include/cmsis_gcc.h ****  */
 510:Drivers/CMSIS/Include/cmsis_gcc.h **** __STATIC_FORCEINLINE uint32_t __STREXH(uint16_t value, volatile uint16_t *addr)
 511:Drivers/CMSIS/Include/cmsis_gcc.h **** {
 512:Drivers/CMSIS/Include/cmsis_gcc.h ****    uint32_t result;
 513:Drivers/CMSIS/Include/cmsis_gcc.h **** 
 514:Drivers/CMSIS/Include/cmsis_gcc.h ****    __ASM volatile ("strexh %0, %2, %1" : "=&r" (result), "=Q" (*addr) : "r" ((uint32_t)value) );
 515:Drivers/CMSIS/Include/cmsis_gcc.h ****    return(result);
 516:Drivers/CMSIS/Include/cmsis_gcc.h **** }
 517:Drivers/CMSIS/Include/cmsis_gcc.h **** 
 518:Drivers/CMSIS/Include/cmsis_gcc.h **** 
 519:Drivers/CMSIS/Include/cmsis_gcc.h **** /**
 520:Drivers/CMSIS/Include/cmsis_gcc.h ****   \brief   STR Exclusive (32 bit)
 521:Drivers/CMSIS/Include/cmsis_gcc.h ****   \details Executes a exclusive STR instruction for 32 bit values.
 522:Drivers/CMSIS/Include/cmsis_gcc.h ****   \param [in]  value  Value to store
 523:Drivers/CMSIS/Include/cmsis_gcc.h ****   \param [in]    ptr  Pointer to location
 524:Drivers/CMSIS/Include/cmsis_gcc.h ****   \return          0  Function succeeded
 525:Drivers/CMSIS/Include/cmsis_gcc.h ****   \return          1  Function failed
 526:Drivers/CMSIS/Include/cmsis_gcc.h ****  */
 527:Drivers/CMSIS/Include/cmsis_gcc.h **** __STATIC_FORCEINLINE uint32_t __STREXW(uint32_t value, volatile uint32_t *addr)
 528:Drivers/CMSIS/Include/cmsis_gcc.h **** {
 529:Drivers/CMSIS/Include/cmsis_gcc.h ****    uint32_t result;
 530:Drivers/CMSIS/Include/cmsis_gcc.h **** 
 531:Drivers/CMSIS/Include/cmsis_gcc.h ****    __ASM volatile ("strex %0, %2, %1" : "=&r" (result), "=Q" (*addr) : "r" (value) );
ARM GAS  C:\Users\bulli\AppData\Local\Temp\ccMLKjFn.s 			page 36


 532:Drivers/CMSIS/Include/cmsis_gcc.h ****    return(result);
 533:Drivers/CMSIS/Include/cmsis_gcc.h **** }
 534:Drivers/CMSIS/Include/cmsis_gcc.h **** 
 535:Drivers/CMSIS/Include/cmsis_gcc.h **** 
 536:Drivers/CMSIS/Include/cmsis_gcc.h **** /**
 537:Drivers/CMSIS/Include/cmsis_gcc.h ****   \brief   Remove the exclusive lock
 538:Drivers/CMSIS/Include/cmsis_gcc.h ****   \details Removes the exclusive lock which is created by LDREX.
 539:Drivers/CMSIS/Include/cmsis_gcc.h ****  */
 540:Drivers/CMSIS/Include/cmsis_gcc.h **** __STATIC_FORCEINLINE void __CLREX(void)
 541:Drivers/CMSIS/Include/cmsis_gcc.h **** {
 542:Drivers/CMSIS/Include/cmsis_gcc.h ****   __ASM volatile ("clrex" ::: "memory");
 543:Drivers/CMSIS/Include/cmsis_gcc.h **** }
 544:Drivers/CMSIS/Include/cmsis_gcc.h **** 
 545:Drivers/CMSIS/Include/cmsis_gcc.h **** #endif /* ((defined (__ARM_ARCH_7M__      ) && (__ARM_ARCH_7M__      == 1)) || \
 546:Drivers/CMSIS/Include/cmsis_gcc.h ****            (defined (__ARM_ARCH_7EM__     ) && (__ARM_ARCH_7EM__     == 1)) || \
 547:Drivers/CMSIS/Include/cmsis_gcc.h ****            (defined (__ARM_ARCH_8M_MAIN__ ) && (__ARM_ARCH_8M_MAIN__ == 1)) || \
 548:Drivers/CMSIS/Include/cmsis_gcc.h ****            (defined (__ARM_ARCH_8M_BASE__ ) && (__ARM_ARCH_8M_BASE__ == 1))    ) */
 549:Drivers/CMSIS/Include/cmsis_gcc.h **** 
 550:Drivers/CMSIS/Include/cmsis_gcc.h **** 
 551:Drivers/CMSIS/Include/cmsis_gcc.h **** #if ((defined (__ARM_ARCH_7M__      ) && (__ARM_ARCH_7M__      == 1)) || \
 552:Drivers/CMSIS/Include/cmsis_gcc.h ****      (defined (__ARM_ARCH_7EM__     ) && (__ARM_ARCH_7EM__     == 1)) || \
 553:Drivers/CMSIS/Include/cmsis_gcc.h ****      (defined (__ARM_ARCH_8M_MAIN__ ) && (__ARM_ARCH_8M_MAIN__ == 1))    )
 554:Drivers/CMSIS/Include/cmsis_gcc.h **** /**
 555:Drivers/CMSIS/Include/cmsis_gcc.h ****   \brief   Signed Saturate
 556:Drivers/CMSIS/Include/cmsis_gcc.h ****   \details Saturates a signed value.
 557:Drivers/CMSIS/Include/cmsis_gcc.h ****   \param [in]  ARG1  Value to be saturated
 558:Drivers/CMSIS/Include/cmsis_gcc.h ****   \param [in]  ARG2  Bit position to saturate to (1..32)
 559:Drivers/CMSIS/Include/cmsis_gcc.h ****   \return             Saturated value
 560:Drivers/CMSIS/Include/cmsis_gcc.h ****  */
 561:Drivers/CMSIS/Include/cmsis_gcc.h **** #define __SSAT(ARG1, ARG2) \
 562:Drivers/CMSIS/Include/cmsis_gcc.h **** __extension__ \
 563:Drivers/CMSIS/Include/cmsis_gcc.h **** ({                          \
 564:Drivers/CMSIS/Include/cmsis_gcc.h ****   int32_t __RES, __ARG1 = (ARG1); \
 565:Drivers/CMSIS/Include/cmsis_gcc.h ****   __ASM volatile ("ssat %0, %1, %2" : "=r" (__RES) :  "I" (ARG2), "r" (__ARG1) : "cc" ); \
 566:Drivers/CMSIS/Include/cmsis_gcc.h ****   __RES; \
 567:Drivers/CMSIS/Include/cmsis_gcc.h ****  })
 568:Drivers/CMSIS/Include/cmsis_gcc.h **** 
 569:Drivers/CMSIS/Include/cmsis_gcc.h **** 
 570:Drivers/CMSIS/Include/cmsis_gcc.h **** /**
 571:Drivers/CMSIS/Include/cmsis_gcc.h ****   \brief   Unsigned Saturate
 572:Drivers/CMSIS/Include/cmsis_gcc.h ****   \details Saturates an unsigned value.
 573:Drivers/CMSIS/Include/cmsis_gcc.h ****   \param [in]  ARG1  Value to be saturated
 574:Drivers/CMSIS/Include/cmsis_gcc.h ****   \param [in]  ARG2  Bit position to saturate to (0..31)
 575:Drivers/CMSIS/Include/cmsis_gcc.h ****   \return             Saturated value
 576:Drivers/CMSIS/Include/cmsis_gcc.h ****  */
 577:Drivers/CMSIS/Include/cmsis_gcc.h **** #define __USAT(ARG1, ARG2) \
 578:Drivers/CMSIS/Include/cmsis_gcc.h **** __extension__ \
 579:Drivers/CMSIS/Include/cmsis_gcc.h **** ({                          \
 580:Drivers/CMSIS/Include/cmsis_gcc.h ****   uint32_t __RES, __ARG1 = (ARG1); \
 581:Drivers/CMSIS/Include/cmsis_gcc.h ****   __ASM volatile ("usat %0, %1, %2" : "=r" (__RES) :  "I" (ARG2), "r" (__ARG1) : "cc" ); \
 582:Drivers/CMSIS/Include/cmsis_gcc.h ****   __RES; \
 583:Drivers/CMSIS/Include/cmsis_gcc.h ****  })
 584:Drivers/CMSIS/Include/cmsis_gcc.h **** 
 585:Drivers/CMSIS/Include/cmsis_gcc.h **** 
 586:Drivers/CMSIS/Include/cmsis_gcc.h **** /**
 587:Drivers/CMSIS/Include/cmsis_gcc.h ****   \brief   Rotate Right with Extend (32 bit)
 588:Drivers/CMSIS/Include/cmsis_gcc.h ****   \details Moves each bit of a bitstring right by one bit.
ARM GAS  C:\Users\bulli\AppData\Local\Temp\ccMLKjFn.s 			page 37


 589:Drivers/CMSIS/Include/cmsis_gcc.h ****            The carry input is shifted in at the left end of the bitstring.
 590:Drivers/CMSIS/Include/cmsis_gcc.h ****   \param [in]    value  Value to rotate
 591:Drivers/CMSIS/Include/cmsis_gcc.h ****   \return               Rotated value
 592:Drivers/CMSIS/Include/cmsis_gcc.h ****  */
 593:Drivers/CMSIS/Include/cmsis_gcc.h **** __STATIC_FORCEINLINE uint32_t __RRX(uint32_t value)
 594:Drivers/CMSIS/Include/cmsis_gcc.h **** {
 595:Drivers/CMSIS/Include/cmsis_gcc.h ****   uint32_t result;
 596:Drivers/CMSIS/Include/cmsis_gcc.h **** 
 597:Drivers/CMSIS/Include/cmsis_gcc.h ****   __ASM volatile ("rrx %0, %1" : __CMSIS_GCC_OUT_REG (result) : __CMSIS_GCC_USE_REG (value) );
 598:Drivers/CMSIS/Include/cmsis_gcc.h ****   return(result);
 599:Drivers/CMSIS/Include/cmsis_gcc.h **** }
 600:Drivers/CMSIS/Include/cmsis_gcc.h **** 
 601:Drivers/CMSIS/Include/cmsis_gcc.h **** 
 602:Drivers/CMSIS/Include/cmsis_gcc.h **** /**
 603:Drivers/CMSIS/Include/cmsis_gcc.h ****   \brief   LDRT Unprivileged (8 bit)
 604:Drivers/CMSIS/Include/cmsis_gcc.h ****   \details Executes a Unprivileged LDRT instruction for 8 bit value.
 605:Drivers/CMSIS/Include/cmsis_gcc.h ****   \param [in]    ptr  Pointer to data
 606:Drivers/CMSIS/Include/cmsis_gcc.h ****   \return             value of type uint8_t at (*ptr)
 607:Drivers/CMSIS/Include/cmsis_gcc.h ****  */
 608:Drivers/CMSIS/Include/cmsis_gcc.h **** __STATIC_FORCEINLINE uint8_t __LDRBT(volatile uint8_t *ptr)
 609:Drivers/CMSIS/Include/cmsis_gcc.h **** {
 610:Drivers/CMSIS/Include/cmsis_gcc.h ****     uint32_t result;
 611:Drivers/CMSIS/Include/cmsis_gcc.h **** 
 612:Drivers/CMSIS/Include/cmsis_gcc.h **** #if (__GNUC__ > 4) || (__GNUC__ == 4 && __GNUC_MINOR__ >= 8)
 613:Drivers/CMSIS/Include/cmsis_gcc.h ****    __ASM volatile ("ldrbt %0, %1" : "=r" (result) : "Q" (*ptr) );
 614:Drivers/CMSIS/Include/cmsis_gcc.h **** #else
 615:Drivers/CMSIS/Include/cmsis_gcc.h ****     /* Prior to GCC 4.8, "Q" will be expanded to [rx, #0] which is not
 616:Drivers/CMSIS/Include/cmsis_gcc.h ****        accepted by assembler. So has to use following less efficient pattern.
 617:Drivers/CMSIS/Include/cmsis_gcc.h ****     */
 618:Drivers/CMSIS/Include/cmsis_gcc.h ****    __ASM volatile ("ldrbt %0, [%1]" : "=r" (result) : "r" (ptr) : "memory" );
 619:Drivers/CMSIS/Include/cmsis_gcc.h **** #endif
 620:Drivers/CMSIS/Include/cmsis_gcc.h ****    return ((uint8_t) result);    /* Add explicit type cast here */
 621:Drivers/CMSIS/Include/cmsis_gcc.h **** }
 622:Drivers/CMSIS/Include/cmsis_gcc.h **** 
 623:Drivers/CMSIS/Include/cmsis_gcc.h **** 
 624:Drivers/CMSIS/Include/cmsis_gcc.h **** /**
 625:Drivers/CMSIS/Include/cmsis_gcc.h ****   \brief   LDRT Unprivileged (16 bit)
 626:Drivers/CMSIS/Include/cmsis_gcc.h ****   \details Executes a Unprivileged LDRT instruction for 16 bit values.
 627:Drivers/CMSIS/Include/cmsis_gcc.h ****   \param [in]    ptr  Pointer to data
 628:Drivers/CMSIS/Include/cmsis_gcc.h ****   \return        value of type uint16_t at (*ptr)
 629:Drivers/CMSIS/Include/cmsis_gcc.h ****  */
 630:Drivers/CMSIS/Include/cmsis_gcc.h **** __STATIC_FORCEINLINE uint16_t __LDRHT(volatile uint16_t *ptr)
 631:Drivers/CMSIS/Include/cmsis_gcc.h **** {
 632:Drivers/CMSIS/Include/cmsis_gcc.h ****     uint32_t result;
 633:Drivers/CMSIS/Include/cmsis_gcc.h **** 
 634:Drivers/CMSIS/Include/cmsis_gcc.h **** #if (__GNUC__ > 4) || (__GNUC__ == 4 && __GNUC_MINOR__ >= 8)
 635:Drivers/CMSIS/Include/cmsis_gcc.h ****    __ASM volatile ("ldrht %0, %1" : "=r" (result) : "Q" (*ptr) );
 636:Drivers/CMSIS/Include/cmsis_gcc.h **** #else
 637:Drivers/CMSIS/Include/cmsis_gcc.h ****     /* Prior to GCC 4.8, "Q" will be expanded to [rx, #0] which is not
 638:Drivers/CMSIS/Include/cmsis_gcc.h ****        accepted by assembler. So has to use following less efficient pattern.
 639:Drivers/CMSIS/Include/cmsis_gcc.h ****     */
 640:Drivers/CMSIS/Include/cmsis_gcc.h ****    __ASM volatile ("ldrht %0, [%1]" : "=r" (result) : "r" (ptr) : "memory" );
 641:Drivers/CMSIS/Include/cmsis_gcc.h **** #endif
 642:Drivers/CMSIS/Include/cmsis_gcc.h ****    return ((uint16_t) result);    /* Add explicit type cast here */
 643:Drivers/CMSIS/Include/cmsis_gcc.h **** }
 644:Drivers/CMSIS/Include/cmsis_gcc.h **** 
 645:Drivers/CMSIS/Include/cmsis_gcc.h **** 
ARM GAS  C:\Users\bulli\AppData\Local\Temp\ccMLKjFn.s 			page 38


 646:Drivers/CMSIS/Include/cmsis_gcc.h **** /**
 647:Drivers/CMSIS/Include/cmsis_gcc.h ****   \brief   LDRT Unprivileged (32 bit)
 648:Drivers/CMSIS/Include/cmsis_gcc.h ****   \details Executes a Unprivileged LDRT instruction for 32 bit values.
 649:Drivers/CMSIS/Include/cmsis_gcc.h ****   \param [in]    ptr  Pointer to data
 650:Drivers/CMSIS/Include/cmsis_gcc.h ****   \return        value of type uint32_t at (*ptr)
 651:Drivers/CMSIS/Include/cmsis_gcc.h ****  */
 652:Drivers/CMSIS/Include/cmsis_gcc.h **** __STATIC_FORCEINLINE uint32_t __LDRT(volatile uint32_t *ptr)
 653:Drivers/CMSIS/Include/cmsis_gcc.h **** {
 654:Drivers/CMSIS/Include/cmsis_gcc.h ****     uint32_t result;
 655:Drivers/CMSIS/Include/cmsis_gcc.h **** 
 656:Drivers/CMSIS/Include/cmsis_gcc.h ****    __ASM volatile ("ldrt %0, %1" : "=r" (result) : "Q" (*ptr) );
 657:Drivers/CMSIS/Include/cmsis_gcc.h ****    return(result);
 658:Drivers/CMSIS/Include/cmsis_gcc.h **** }
 659:Drivers/CMSIS/Include/cmsis_gcc.h **** 
 660:Drivers/CMSIS/Include/cmsis_gcc.h **** 
 661:Drivers/CMSIS/Include/cmsis_gcc.h **** /**
 662:Drivers/CMSIS/Include/cmsis_gcc.h ****   \brief   STRT Unprivileged (8 bit)
 663:Drivers/CMSIS/Include/cmsis_gcc.h ****   \details Executes a Unprivileged STRT instruction for 8 bit values.
 664:Drivers/CMSIS/Include/cmsis_gcc.h ****   \param [in]  value  Value to store
 665:Drivers/CMSIS/Include/cmsis_gcc.h ****   \param [in]    ptr  Pointer to location
 666:Drivers/CMSIS/Include/cmsis_gcc.h ****  */
 667:Drivers/CMSIS/Include/cmsis_gcc.h **** __STATIC_FORCEINLINE void __STRBT(uint8_t value, volatile uint8_t *ptr)
 668:Drivers/CMSIS/Include/cmsis_gcc.h **** {
 669:Drivers/CMSIS/Include/cmsis_gcc.h ****    __ASM volatile ("strbt %1, %0" : "=Q" (*ptr) : "r" ((uint32_t)value) );
 670:Drivers/CMSIS/Include/cmsis_gcc.h **** }
 671:Drivers/CMSIS/Include/cmsis_gcc.h **** 
 672:Drivers/CMSIS/Include/cmsis_gcc.h **** 
 673:Drivers/CMSIS/Include/cmsis_gcc.h **** /**
 674:Drivers/CMSIS/Include/cmsis_gcc.h ****   \brief   STRT Unprivileged (16 bit)
 675:Drivers/CMSIS/Include/cmsis_gcc.h ****   \details Executes a Unprivileged STRT instruction for 16 bit values.
 676:Drivers/CMSIS/Include/cmsis_gcc.h ****   \param [in]  value  Value to store
 677:Drivers/CMSIS/Include/cmsis_gcc.h ****   \param [in]    ptr  Pointer to location
 678:Drivers/CMSIS/Include/cmsis_gcc.h ****  */
 679:Drivers/CMSIS/Include/cmsis_gcc.h **** __STATIC_FORCEINLINE void __STRHT(uint16_t value, volatile uint16_t *ptr)
 680:Drivers/CMSIS/Include/cmsis_gcc.h **** {
 681:Drivers/CMSIS/Include/cmsis_gcc.h ****    __ASM volatile ("strht %1, %0" : "=Q" (*ptr) : "r" ((uint32_t)value) );
 682:Drivers/CMSIS/Include/cmsis_gcc.h **** }
 683:Drivers/CMSIS/Include/cmsis_gcc.h **** 
 684:Drivers/CMSIS/Include/cmsis_gcc.h **** 
 685:Drivers/CMSIS/Include/cmsis_gcc.h **** /**
 686:Drivers/CMSIS/Include/cmsis_gcc.h ****   \brief   STRT Unprivileged (32 bit)
 687:Drivers/CMSIS/Include/cmsis_gcc.h ****   \details Executes a Unprivileged STRT instruction for 32 bit values.
 688:Drivers/CMSIS/Include/cmsis_gcc.h ****   \param [in]  value  Value to store
 689:Drivers/CMSIS/Include/cmsis_gcc.h ****   \param [in]    ptr  Pointer to location
 690:Drivers/CMSIS/Include/cmsis_gcc.h ****  */
 691:Drivers/CMSIS/Include/cmsis_gcc.h **** __STATIC_FORCEINLINE void __STRT(uint32_t value, volatile uint32_t *ptr)
 692:Drivers/CMSIS/Include/cmsis_gcc.h **** {
 693:Drivers/CMSIS/Include/cmsis_gcc.h ****    __ASM volatile ("strt %1, %0" : "=Q" (*ptr) : "r" (value) );
 694:Drivers/CMSIS/Include/cmsis_gcc.h **** }
 695:Drivers/CMSIS/Include/cmsis_gcc.h **** 
 696:Drivers/CMSIS/Include/cmsis_gcc.h **** #else  /* ((defined (__ARM_ARCH_7M__      ) && (__ARM_ARCH_7M__      == 1)) || \
 697:Drivers/CMSIS/Include/cmsis_gcc.h ****            (defined (__ARM_ARCH_7EM__     ) && (__ARM_ARCH_7EM__     == 1)) || \
 698:Drivers/CMSIS/Include/cmsis_gcc.h ****            (defined (__ARM_ARCH_8M_MAIN__ ) && (__ARM_ARCH_8M_MAIN__ == 1))    ) */
 699:Drivers/CMSIS/Include/cmsis_gcc.h **** 
 700:Drivers/CMSIS/Include/cmsis_gcc.h **** /**
 701:Drivers/CMSIS/Include/cmsis_gcc.h ****   \brief   Signed Saturate
 702:Drivers/CMSIS/Include/cmsis_gcc.h ****   \details Saturates a signed value.
ARM GAS  C:\Users\bulli\AppData\Local\Temp\ccMLKjFn.s 			page 39


 703:Drivers/CMSIS/Include/cmsis_gcc.h ****   \param [in]  value  Value to be saturated
 704:Drivers/CMSIS/Include/cmsis_gcc.h ****   \param [in]    sat  Bit position to saturate to (1..32)
 705:Drivers/CMSIS/Include/cmsis_gcc.h ****   \return             Saturated value
 706:Drivers/CMSIS/Include/cmsis_gcc.h ****  */
 707:Drivers/CMSIS/Include/cmsis_gcc.h **** __STATIC_FORCEINLINE int32_t __SSAT(int32_t val, uint32_t sat)
 708:Drivers/CMSIS/Include/cmsis_gcc.h **** {
 709:Drivers/CMSIS/Include/cmsis_gcc.h ****   if ((sat >= 1U) && (sat <= 32U))
 710:Drivers/CMSIS/Include/cmsis_gcc.h ****   {
 711:Drivers/CMSIS/Include/cmsis_gcc.h ****     const int32_t max = (int32_t)((1U << (sat - 1U)) - 1U);
 712:Drivers/CMSIS/Include/cmsis_gcc.h ****     const int32_t min = -1 - max ;
 713:Drivers/CMSIS/Include/cmsis_gcc.h ****     if (val > max)
 714:Drivers/CMSIS/Include/cmsis_gcc.h ****     {
 715:Drivers/CMSIS/Include/cmsis_gcc.h ****       return max;
 716:Drivers/CMSIS/Include/cmsis_gcc.h ****     }
 717:Drivers/CMSIS/Include/cmsis_gcc.h ****     else if (val < min)
 718:Drivers/CMSIS/Include/cmsis_gcc.h ****     {
 719:Drivers/CMSIS/Include/cmsis_gcc.h ****       return min;
 720:Drivers/CMSIS/Include/cmsis_gcc.h ****     }
 721:Drivers/CMSIS/Include/cmsis_gcc.h ****   }
 722:Drivers/CMSIS/Include/cmsis_gcc.h ****   return val;
 723:Drivers/CMSIS/Include/cmsis_gcc.h **** }
 724:Drivers/CMSIS/Include/cmsis_gcc.h **** 
 725:Drivers/CMSIS/Include/cmsis_gcc.h **** /**
 726:Drivers/CMSIS/Include/cmsis_gcc.h ****   \brief   Unsigned Saturate
 727:Drivers/CMSIS/Include/cmsis_gcc.h ****   \details Saturates an unsigned value.
 728:Drivers/CMSIS/Include/cmsis_gcc.h ****   \param [in]  value  Value to be saturated
 729:Drivers/CMSIS/Include/cmsis_gcc.h ****   \param [in]    sat  Bit position to saturate to (0..31)
 730:Drivers/CMSIS/Include/cmsis_gcc.h ****   \return             Saturated value
 731:Drivers/CMSIS/Include/cmsis_gcc.h ****  */
 732:Drivers/CMSIS/Include/cmsis_gcc.h **** __STATIC_FORCEINLINE uint32_t __USAT(int32_t val, uint32_t sat)
 733:Drivers/CMSIS/Include/cmsis_gcc.h **** {
 734:Drivers/CMSIS/Include/cmsis_gcc.h ****   if (sat <= 31U)
 735:Drivers/CMSIS/Include/cmsis_gcc.h ****   {
 736:Drivers/CMSIS/Include/cmsis_gcc.h ****     const uint32_t max = ((1U << sat) - 1U);
 737:Drivers/CMSIS/Include/cmsis_gcc.h ****     if (val > (int32_t)max)
 738:Drivers/CMSIS/Include/cmsis_gcc.h ****     {
 739:Drivers/CMSIS/Include/cmsis_gcc.h ****       return max;
 740:Drivers/CMSIS/Include/cmsis_gcc.h ****     }
 741:Drivers/CMSIS/Include/cmsis_gcc.h ****     else if (val < 0)
 742:Drivers/CMSIS/Include/cmsis_gcc.h ****     {
 743:Drivers/CMSIS/Include/cmsis_gcc.h ****       return 0U;
 744:Drivers/CMSIS/Include/cmsis_gcc.h ****     }
 745:Drivers/CMSIS/Include/cmsis_gcc.h ****   }
 746:Drivers/CMSIS/Include/cmsis_gcc.h ****   return (uint32_t)val;
 747:Drivers/CMSIS/Include/cmsis_gcc.h **** }
 748:Drivers/CMSIS/Include/cmsis_gcc.h **** 
 749:Drivers/CMSIS/Include/cmsis_gcc.h **** #endif /* ((defined (__ARM_ARCH_7M__      ) && (__ARM_ARCH_7M__      == 1)) || \
 750:Drivers/CMSIS/Include/cmsis_gcc.h ****            (defined (__ARM_ARCH_7EM__     ) && (__ARM_ARCH_7EM__     == 1)) || \
 751:Drivers/CMSIS/Include/cmsis_gcc.h ****            (defined (__ARM_ARCH_8M_MAIN__ ) && (__ARM_ARCH_8M_MAIN__ == 1))    ) */
 752:Drivers/CMSIS/Include/cmsis_gcc.h **** 
 753:Drivers/CMSIS/Include/cmsis_gcc.h **** 
 754:Drivers/CMSIS/Include/cmsis_gcc.h **** #if ((defined (__ARM_ARCH_8M_MAIN__ ) && (__ARM_ARCH_8M_MAIN__ == 1)) || \
 755:Drivers/CMSIS/Include/cmsis_gcc.h ****      (defined (__ARM_ARCH_8M_BASE__ ) && (__ARM_ARCH_8M_BASE__ == 1))    )
 756:Drivers/CMSIS/Include/cmsis_gcc.h **** /**
 757:Drivers/CMSIS/Include/cmsis_gcc.h ****   \brief   Load-Acquire (8 bit)
 758:Drivers/CMSIS/Include/cmsis_gcc.h ****   \details Executes a LDAB instruction for 8 bit value.
 759:Drivers/CMSIS/Include/cmsis_gcc.h ****   \param [in]    ptr  Pointer to data
ARM GAS  C:\Users\bulli\AppData\Local\Temp\ccMLKjFn.s 			page 40


 760:Drivers/CMSIS/Include/cmsis_gcc.h ****   \return             value of type uint8_t at (*ptr)
 761:Drivers/CMSIS/Include/cmsis_gcc.h ****  */
 762:Drivers/CMSIS/Include/cmsis_gcc.h **** __STATIC_FORCEINLINE uint8_t __LDAB(volatile uint8_t *ptr)
 763:Drivers/CMSIS/Include/cmsis_gcc.h **** {
 764:Drivers/CMSIS/Include/cmsis_gcc.h ****     uint32_t result;
 765:Drivers/CMSIS/Include/cmsis_gcc.h **** 
 766:Drivers/CMSIS/Include/cmsis_gcc.h ****    __ASM volatile ("ldab %0, %1" : "=r" (result) : "Q" (*ptr) : "memory" );
 767:Drivers/CMSIS/Include/cmsis_gcc.h ****    return ((uint8_t) result);
 768:Drivers/CMSIS/Include/cmsis_gcc.h **** }
 769:Drivers/CMSIS/Include/cmsis_gcc.h **** 
 770:Drivers/CMSIS/Include/cmsis_gcc.h **** 
 771:Drivers/CMSIS/Include/cmsis_gcc.h **** /**
 772:Drivers/CMSIS/Include/cmsis_gcc.h ****   \brief   Load-Acquire (16 bit)
 773:Drivers/CMSIS/Include/cmsis_gcc.h ****   \details Executes a LDAH instruction for 16 bit values.
 774:Drivers/CMSIS/Include/cmsis_gcc.h ****   \param [in]    ptr  Pointer to data
 775:Drivers/CMSIS/Include/cmsis_gcc.h ****   \return        value of type uint16_t at (*ptr)
 776:Drivers/CMSIS/Include/cmsis_gcc.h ****  */
 777:Drivers/CMSIS/Include/cmsis_gcc.h **** __STATIC_FORCEINLINE uint16_t __LDAH(volatile uint16_t *ptr)
 778:Drivers/CMSIS/Include/cmsis_gcc.h **** {
 779:Drivers/CMSIS/Include/cmsis_gcc.h ****     uint32_t result;
 780:Drivers/CMSIS/Include/cmsis_gcc.h **** 
 781:Drivers/CMSIS/Include/cmsis_gcc.h ****    __ASM volatile ("ldah %0, %1" : "=r" (result) : "Q" (*ptr) : "memory" );
 782:Drivers/CMSIS/Include/cmsis_gcc.h ****    return ((uint16_t) result);
 783:Drivers/CMSIS/Include/cmsis_gcc.h **** }
 784:Drivers/CMSIS/Include/cmsis_gcc.h **** 
 785:Drivers/CMSIS/Include/cmsis_gcc.h **** 
 786:Drivers/CMSIS/Include/cmsis_gcc.h **** /**
 787:Drivers/CMSIS/Include/cmsis_gcc.h ****   \brief   Load-Acquire (32 bit)
 788:Drivers/CMSIS/Include/cmsis_gcc.h ****   \details Executes a LDA instruction for 32 bit values.
 789:Drivers/CMSIS/Include/cmsis_gcc.h ****   \param [in]    ptr  Pointer to data
 790:Drivers/CMSIS/Include/cmsis_gcc.h ****   \return        value of type uint32_t at (*ptr)
 791:Drivers/CMSIS/Include/cmsis_gcc.h ****  */
 792:Drivers/CMSIS/Include/cmsis_gcc.h **** __STATIC_FORCEINLINE uint32_t __LDA(volatile uint32_t *ptr)
 793:Drivers/CMSIS/Include/cmsis_gcc.h **** {
 794:Drivers/CMSIS/Include/cmsis_gcc.h ****     uint32_t result;
 795:Drivers/CMSIS/Include/cmsis_gcc.h **** 
 796:Drivers/CMSIS/Include/cmsis_gcc.h ****    __ASM volatile ("lda %0, %1" : "=r" (result) : "Q" (*ptr) : "memory" );
 797:Drivers/CMSIS/Include/cmsis_gcc.h ****    return(result);
 798:Drivers/CMSIS/Include/cmsis_gcc.h **** }
 799:Drivers/CMSIS/Include/cmsis_gcc.h **** 
 800:Drivers/CMSIS/Include/cmsis_gcc.h **** 
 801:Drivers/CMSIS/Include/cmsis_gcc.h **** /**
 802:Drivers/CMSIS/Include/cmsis_gcc.h ****   \brief   Store-Release (8 bit)
 803:Drivers/CMSIS/Include/cmsis_gcc.h ****   \details Executes a STLB instruction for 8 bit values.
 804:Drivers/CMSIS/Include/cmsis_gcc.h ****   \param [in]  value  Value to store
 805:Drivers/CMSIS/Include/cmsis_gcc.h ****   \param [in]    ptr  Pointer to location
 806:Drivers/CMSIS/Include/cmsis_gcc.h ****  */
 807:Drivers/CMSIS/Include/cmsis_gcc.h **** __STATIC_FORCEINLINE void __STLB(uint8_t value, volatile uint8_t *ptr)
 808:Drivers/CMSIS/Include/cmsis_gcc.h **** {
 809:Drivers/CMSIS/Include/cmsis_gcc.h ****    __ASM volatile ("stlb %1, %0" : "=Q" (*ptr) : "r" ((uint32_t)value) : "memory" );
 810:Drivers/CMSIS/Include/cmsis_gcc.h **** }
 811:Drivers/CMSIS/Include/cmsis_gcc.h **** 
 812:Drivers/CMSIS/Include/cmsis_gcc.h **** 
 813:Drivers/CMSIS/Include/cmsis_gcc.h **** /**
 814:Drivers/CMSIS/Include/cmsis_gcc.h ****   \brief   Store-Release (16 bit)
 815:Drivers/CMSIS/Include/cmsis_gcc.h ****   \details Executes a STLH instruction for 16 bit values.
 816:Drivers/CMSIS/Include/cmsis_gcc.h ****   \param [in]  value  Value to store
ARM GAS  C:\Users\bulli\AppData\Local\Temp\ccMLKjFn.s 			page 41


 817:Drivers/CMSIS/Include/cmsis_gcc.h ****   \param [in]    ptr  Pointer to location
 818:Drivers/CMSIS/Include/cmsis_gcc.h ****  */
 819:Drivers/CMSIS/Include/cmsis_gcc.h **** __STATIC_FORCEINLINE void __STLH(uint16_t value, volatile uint16_t *ptr)
 820:Drivers/CMSIS/Include/cmsis_gcc.h **** {
 821:Drivers/CMSIS/Include/cmsis_gcc.h ****    __ASM volatile ("stlh %1, %0" : "=Q" (*ptr) : "r" ((uint32_t)value) : "memory" );
 822:Drivers/CMSIS/Include/cmsis_gcc.h **** }
 823:Drivers/CMSIS/Include/cmsis_gcc.h **** 
 824:Drivers/CMSIS/Include/cmsis_gcc.h **** 
 825:Drivers/CMSIS/Include/cmsis_gcc.h **** /**
 826:Drivers/CMSIS/Include/cmsis_gcc.h ****   \brief   Store-Release (32 bit)
 827:Drivers/CMSIS/Include/cmsis_gcc.h ****   \details Executes a STL instruction for 32 bit values.
 828:Drivers/CMSIS/Include/cmsis_gcc.h ****   \param [in]  value  Value to store
 829:Drivers/CMSIS/Include/cmsis_gcc.h ****   \param [in]    ptr  Pointer to location
 830:Drivers/CMSIS/Include/cmsis_gcc.h ****  */
 831:Drivers/CMSIS/Include/cmsis_gcc.h **** __STATIC_FORCEINLINE void __STL(uint32_t value, volatile uint32_t *ptr)
 832:Drivers/CMSIS/Include/cmsis_gcc.h **** {
 833:Drivers/CMSIS/Include/cmsis_gcc.h ****    __ASM volatile ("stl %1, %0" : "=Q" (*ptr) : "r" ((uint32_t)value) : "memory" );
 834:Drivers/CMSIS/Include/cmsis_gcc.h **** }
 835:Drivers/CMSIS/Include/cmsis_gcc.h **** 
 836:Drivers/CMSIS/Include/cmsis_gcc.h **** 
 837:Drivers/CMSIS/Include/cmsis_gcc.h **** /**
 838:Drivers/CMSIS/Include/cmsis_gcc.h ****   \brief   Load-Acquire Exclusive (8 bit)
 839:Drivers/CMSIS/Include/cmsis_gcc.h ****   \details Executes a LDAB exclusive instruction for 8 bit value.
 840:Drivers/CMSIS/Include/cmsis_gcc.h ****   \param [in]    ptr  Pointer to data
 841:Drivers/CMSIS/Include/cmsis_gcc.h ****   \return             value of type uint8_t at (*ptr)
 842:Drivers/CMSIS/Include/cmsis_gcc.h ****  */
 843:Drivers/CMSIS/Include/cmsis_gcc.h **** __STATIC_FORCEINLINE uint8_t __LDAEXB(volatile uint8_t *ptr)
 844:Drivers/CMSIS/Include/cmsis_gcc.h **** {
 845:Drivers/CMSIS/Include/cmsis_gcc.h ****     uint32_t result;
 846:Drivers/CMSIS/Include/cmsis_gcc.h **** 
 847:Drivers/CMSIS/Include/cmsis_gcc.h ****    __ASM volatile ("ldaexb %0, %1" : "=r" (result) : "Q" (*ptr) : "memory" );
 848:Drivers/CMSIS/Include/cmsis_gcc.h ****    return ((uint8_t) result);
 849:Drivers/CMSIS/Include/cmsis_gcc.h **** }
 850:Drivers/CMSIS/Include/cmsis_gcc.h **** 
 851:Drivers/CMSIS/Include/cmsis_gcc.h **** 
 852:Drivers/CMSIS/Include/cmsis_gcc.h **** /**
 853:Drivers/CMSIS/Include/cmsis_gcc.h ****   \brief   Load-Acquire Exclusive (16 bit)
 854:Drivers/CMSIS/Include/cmsis_gcc.h ****   \details Executes a LDAH exclusive instruction for 16 bit values.
 855:Drivers/CMSIS/Include/cmsis_gcc.h ****   \param [in]    ptr  Pointer to data
 856:Drivers/CMSIS/Include/cmsis_gcc.h ****   \return        value of type uint16_t at (*ptr)
 857:Drivers/CMSIS/Include/cmsis_gcc.h ****  */
 858:Drivers/CMSIS/Include/cmsis_gcc.h **** __STATIC_FORCEINLINE uint16_t __LDAEXH(volatile uint16_t *ptr)
 859:Drivers/CMSIS/Include/cmsis_gcc.h **** {
 860:Drivers/CMSIS/Include/cmsis_gcc.h ****     uint32_t result;
 861:Drivers/CMSIS/Include/cmsis_gcc.h **** 
 862:Drivers/CMSIS/Include/cmsis_gcc.h ****    __ASM volatile ("ldaexh %0, %1" : "=r" (result) : "Q" (*ptr) : "memory" );
 863:Drivers/CMSIS/Include/cmsis_gcc.h ****    return ((uint16_t) result);
 864:Drivers/CMSIS/Include/cmsis_gcc.h **** }
 865:Drivers/CMSIS/Include/cmsis_gcc.h **** 
 866:Drivers/CMSIS/Include/cmsis_gcc.h **** 
 867:Drivers/CMSIS/Include/cmsis_gcc.h **** /**
 868:Drivers/CMSIS/Include/cmsis_gcc.h ****   \brief   Load-Acquire Exclusive (32 bit)
 869:Drivers/CMSIS/Include/cmsis_gcc.h ****   \details Executes a LDA exclusive instruction for 32 bit values.
 870:Drivers/CMSIS/Include/cmsis_gcc.h ****   \param [in]    ptr  Pointer to data
 871:Drivers/CMSIS/Include/cmsis_gcc.h ****   \return        value of type uint32_t at (*ptr)
 872:Drivers/CMSIS/Include/cmsis_gcc.h ****  */
 873:Drivers/CMSIS/Include/cmsis_gcc.h **** __STATIC_FORCEINLINE uint32_t __LDAEX(volatile uint32_t *ptr)
ARM GAS  C:\Users\bulli\AppData\Local\Temp\ccMLKjFn.s 			page 42


 874:Drivers/CMSIS/Include/cmsis_gcc.h **** {
 875:Drivers/CMSIS/Include/cmsis_gcc.h ****     uint32_t result;
 876:Drivers/CMSIS/Include/cmsis_gcc.h **** 
 877:Drivers/CMSIS/Include/cmsis_gcc.h ****    __ASM volatile ("ldaex %0, %1" : "=r" (result) : "Q" (*ptr) : "memory" );
 878:Drivers/CMSIS/Include/cmsis_gcc.h ****    return(result);
 879:Drivers/CMSIS/Include/cmsis_gcc.h **** }
 880:Drivers/CMSIS/Include/cmsis_gcc.h **** 
 881:Drivers/CMSIS/Include/cmsis_gcc.h **** 
 882:Drivers/CMSIS/Include/cmsis_gcc.h **** /**
 883:Drivers/CMSIS/Include/cmsis_gcc.h ****   \brief   Store-Release Exclusive (8 bit)
 884:Drivers/CMSIS/Include/cmsis_gcc.h ****   \details Executes a STLB exclusive instruction for 8 bit values.
 885:Drivers/CMSIS/Include/cmsis_gcc.h ****   \param [in]  value  Value to store
 886:Drivers/CMSIS/Include/cmsis_gcc.h ****   \param [in]    ptr  Pointer to location
 887:Drivers/CMSIS/Include/cmsis_gcc.h ****   \return          0  Function succeeded
 888:Drivers/CMSIS/Include/cmsis_gcc.h ****   \return          1  Function failed
 889:Drivers/CMSIS/Include/cmsis_gcc.h ****  */
 890:Drivers/CMSIS/Include/cmsis_gcc.h **** __STATIC_FORCEINLINE uint32_t __STLEXB(uint8_t value, volatile uint8_t *ptr)
 891:Drivers/CMSIS/Include/cmsis_gcc.h **** {
 892:Drivers/CMSIS/Include/cmsis_gcc.h ****    uint32_t result;
 893:Drivers/CMSIS/Include/cmsis_gcc.h **** 
 894:Drivers/CMSIS/Include/cmsis_gcc.h ****    __ASM volatile ("stlexb %0, %2, %1" : "=&r" (result), "=Q" (*ptr) : "r" ((uint32_t)value) : "mem
 895:Drivers/CMSIS/Include/cmsis_gcc.h ****    return(result);
 896:Drivers/CMSIS/Include/cmsis_gcc.h **** }
 897:Drivers/CMSIS/Include/cmsis_gcc.h **** 
 898:Drivers/CMSIS/Include/cmsis_gcc.h **** 
 899:Drivers/CMSIS/Include/cmsis_gcc.h **** /**
 900:Drivers/CMSIS/Include/cmsis_gcc.h ****   \brief   Store-Release Exclusive (16 bit)
 901:Drivers/CMSIS/Include/cmsis_gcc.h ****   \details Executes a STLH exclusive instruction for 16 bit values.
 902:Drivers/CMSIS/Include/cmsis_gcc.h ****   \param [in]  value  Value to store
 903:Drivers/CMSIS/Include/cmsis_gcc.h ****   \param [in]    ptr  Pointer to location
 904:Drivers/CMSIS/Include/cmsis_gcc.h ****   \return          0  Function succeeded
 905:Drivers/CMSIS/Include/cmsis_gcc.h ****   \return          1  Function failed
 906:Drivers/CMSIS/Include/cmsis_gcc.h ****  */
 907:Drivers/CMSIS/Include/cmsis_gcc.h **** __STATIC_FORCEINLINE uint32_t __STLEXH(uint16_t value, volatile uint16_t *ptr)
 908:Drivers/CMSIS/Include/cmsis_gcc.h **** {
 909:Drivers/CMSIS/Include/cmsis_gcc.h ****    uint32_t result;
 910:Drivers/CMSIS/Include/cmsis_gcc.h **** 
 911:Drivers/CMSIS/Include/cmsis_gcc.h ****    __ASM volatile ("stlexh %0, %2, %1" : "=&r" (result), "=Q" (*ptr) : "r" ((uint32_t)value) : "mem
 912:Drivers/CMSIS/Include/cmsis_gcc.h ****    return(result);
 913:Drivers/CMSIS/Include/cmsis_gcc.h **** }
 914:Drivers/CMSIS/Include/cmsis_gcc.h **** 
 915:Drivers/CMSIS/Include/cmsis_gcc.h **** 
 916:Drivers/CMSIS/Include/cmsis_gcc.h **** /**
 917:Drivers/CMSIS/Include/cmsis_gcc.h ****   \brief   Store-Release Exclusive (32 bit)
 918:Drivers/CMSIS/Include/cmsis_gcc.h ****   \details Executes a STL exclusive instruction for 32 bit values.
 919:Drivers/CMSIS/Include/cmsis_gcc.h ****   \param [in]  value  Value to store
 920:Drivers/CMSIS/Include/cmsis_gcc.h ****   \param [in]    ptr  Pointer to location
 921:Drivers/CMSIS/Include/cmsis_gcc.h ****   \return          0  Function succeeded
 922:Drivers/CMSIS/Include/cmsis_gcc.h ****   \return          1  Function failed
 923:Drivers/CMSIS/Include/cmsis_gcc.h ****  */
 924:Drivers/CMSIS/Include/cmsis_gcc.h **** __STATIC_FORCEINLINE uint32_t __STLEX(uint32_t value, volatile uint32_t *ptr)
 925:Drivers/CMSIS/Include/cmsis_gcc.h **** {
 926:Drivers/CMSIS/Include/cmsis_gcc.h ****    uint32_t result;
 927:Drivers/CMSIS/Include/cmsis_gcc.h **** 
 928:Drivers/CMSIS/Include/cmsis_gcc.h ****    __ASM volatile ("stlex %0, %2, %1" : "=&r" (result), "=Q" (*ptr) : "r" ((uint32_t)value) : "memo
 929:Drivers/CMSIS/Include/cmsis_gcc.h ****    return(result);
 930:Drivers/CMSIS/Include/cmsis_gcc.h **** }
ARM GAS  C:\Users\bulli\AppData\Local\Temp\ccMLKjFn.s 			page 43


 931:Drivers/CMSIS/Include/cmsis_gcc.h **** 
 932:Drivers/CMSIS/Include/cmsis_gcc.h **** #endif /* ((defined (__ARM_ARCH_8M_MAIN__ ) && (__ARM_ARCH_8M_MAIN__ == 1)) || \
 933:Drivers/CMSIS/Include/cmsis_gcc.h ****            (defined (__ARM_ARCH_8M_BASE__ ) && (__ARM_ARCH_8M_BASE__ == 1))    ) */
 934:Drivers/CMSIS/Include/cmsis_gcc.h **** 
 935:Drivers/CMSIS/Include/cmsis_gcc.h **** /*@}*/ /* end of group CMSIS_Core_InstructionInterface */
 936:Drivers/CMSIS/Include/cmsis_gcc.h **** 
 937:Drivers/CMSIS/Include/cmsis_gcc.h **** 
 938:Drivers/CMSIS/Include/cmsis_gcc.h **** /* ###########################  Core Function Access  ########################### */
 939:Drivers/CMSIS/Include/cmsis_gcc.h **** /** \ingroup  CMSIS_Core_FunctionInterface
 940:Drivers/CMSIS/Include/cmsis_gcc.h ****     \defgroup CMSIS_Core_RegAccFunctions CMSIS Core Register Access Functions
 941:Drivers/CMSIS/Include/cmsis_gcc.h ****   @{
 942:Drivers/CMSIS/Include/cmsis_gcc.h ****  */
 943:Drivers/CMSIS/Include/cmsis_gcc.h **** 
 944:Drivers/CMSIS/Include/cmsis_gcc.h **** /**
 945:Drivers/CMSIS/Include/cmsis_gcc.h ****   \brief   Enable IRQ Interrupts
 946:Drivers/CMSIS/Include/cmsis_gcc.h ****   \details Enables IRQ interrupts by clearing special-purpose register PRIMASK.
 947:Drivers/CMSIS/Include/cmsis_gcc.h ****            Can only be executed in Privileged modes.
 948:Drivers/CMSIS/Include/cmsis_gcc.h ****  */
 949:Drivers/CMSIS/Include/cmsis_gcc.h **** __STATIC_FORCEINLINE void __enable_irq(void)
 950:Drivers/CMSIS/Include/cmsis_gcc.h **** {
 951:Drivers/CMSIS/Include/cmsis_gcc.h ****   __ASM volatile ("cpsie i" : : : "memory");
 952:Drivers/CMSIS/Include/cmsis_gcc.h **** }
 953:Drivers/CMSIS/Include/cmsis_gcc.h **** 
 954:Drivers/CMSIS/Include/cmsis_gcc.h **** 
 955:Drivers/CMSIS/Include/cmsis_gcc.h **** /**
 956:Drivers/CMSIS/Include/cmsis_gcc.h ****   \brief   Disable IRQ Interrupts
 957:Drivers/CMSIS/Include/cmsis_gcc.h ****   \details Disables IRQ interrupts by setting special-purpose register PRIMASK.
 958:Drivers/CMSIS/Include/cmsis_gcc.h ****            Can only be executed in Privileged modes.
 959:Drivers/CMSIS/Include/cmsis_gcc.h ****  */
 960:Drivers/CMSIS/Include/cmsis_gcc.h **** __STATIC_FORCEINLINE void __disable_irq(void)
 894              		.loc 2 960 27 view .LVU242
 895              	.LBB23:
 961:Drivers/CMSIS/Include/cmsis_gcc.h **** {
 962:Drivers/CMSIS/Include/cmsis_gcc.h ****   __ASM volatile ("cpsid i" : : : "memory");
 896              		.loc 2 962 3 view .LVU243
 897              		.syntax unified
 898              	@ 962 "Drivers/CMSIS/Include/cmsis_gcc.h" 1
 899 0000 72B6     		cpsid i
 900              	@ 0 "" 2
 901              		.thumb
 902              		.syntax unified
 903              	.L66:
 904              	.LBE23:
 905              	.LBE22:
 501:Core/Src/main.c ****   while (1)
 906              		.loc 1 501 3 view .LVU244
 502:Core/Src/main.c ****   {
 503:Core/Src/main.c ****   }
 907              		.loc 1 503 3 view .LVU245
 501:Core/Src/main.c ****   while (1)
 908              		.loc 1 501 9 view .LVU246
 909 0002 FEE7     		b	.L66
 910              		.cfi_endproc
 911              	.LFE147:
 913              		.section	.text.MX_USART2_UART_Init,"ax",%progbits
 914              		.align	1
 915              		.syntax unified
ARM GAS  C:\Users\bulli\AppData\Local\Temp\ccMLKjFn.s 			page 44


 916              		.thumb
 917              		.thumb_func
 919              	MX_USART2_UART_Init:
 920              	.LFB143:
 405:Core/Src/main.c **** 
 921              		.loc 1 405 1 view -0
 922              		.cfi_startproc
 923              		@ args = 0, pretend = 0, frame = 0
 924              		@ frame_needed = 0, uses_anonymous_args = 0
 925 0000 08B5     		push	{r3, lr}
 926              		.cfi_def_cfa_offset 8
 927              		.cfi_offset 3, -8
 928              		.cfi_offset 14, -4
 414:Core/Src/main.c ****   huart2.Init.BaudRate = 115200;
 929              		.loc 1 414 3 view .LVU248
 414:Core/Src/main.c ****   huart2.Init.BaudRate = 115200;
 930              		.loc 1 414 19 is_stmt 0 view .LVU249
 931 0002 0A48     		ldr	r0, .L71
 932 0004 0A4B     		ldr	r3, .L71+4
 933 0006 0360     		str	r3, [r0]
 415:Core/Src/main.c ****   huart2.Init.WordLength = UART_WORDLENGTH_8B;
 934              		.loc 1 415 3 is_stmt 1 view .LVU250
 415:Core/Src/main.c ****   huart2.Init.WordLength = UART_WORDLENGTH_8B;
 935              		.loc 1 415 24 is_stmt 0 view .LVU251
 936 0008 4FF4E133 		mov	r3, #115200
 937 000c 4360     		str	r3, [r0, #4]
 416:Core/Src/main.c ****   huart2.Init.StopBits = UART_STOPBITS_1;
 938              		.loc 1 416 3 is_stmt 1 view .LVU252
 416:Core/Src/main.c ****   huart2.Init.StopBits = UART_STOPBITS_1;
 939              		.loc 1 416 26 is_stmt 0 view .LVU253
 940 000e 0023     		movs	r3, #0
 941 0010 8360     		str	r3, [r0, #8]
 417:Core/Src/main.c ****   huart2.Init.Parity = UART_PARITY_NONE;
 942              		.loc 1 417 3 is_stmt 1 view .LVU254
 417:Core/Src/main.c ****   huart2.Init.Parity = UART_PARITY_NONE;
 943              		.loc 1 417 24 is_stmt 0 view .LVU255
 944 0012 C360     		str	r3, [r0, #12]
 418:Core/Src/main.c ****   huart2.Init.Mode = UART_MODE_TX_RX;
 945              		.loc 1 418 3 is_stmt 1 view .LVU256
 418:Core/Src/main.c ****   huart2.Init.Mode = UART_MODE_TX_RX;
 946              		.loc 1 418 22 is_stmt 0 view .LVU257
 947 0014 0361     		str	r3, [r0, #16]
 419:Core/Src/main.c ****   huart2.Init.HwFlowCtl = UART_HWCONTROL_NONE;
 948              		.loc 1 419 3 is_stmt 1 view .LVU258
 419:Core/Src/main.c ****   huart2.Init.HwFlowCtl = UART_HWCONTROL_NONE;
 949              		.loc 1 419 20 is_stmt 0 view .LVU259
 950 0016 0C22     		movs	r2, #12
 951 0018 4261     		str	r2, [r0, #20]
 420:Core/Src/main.c ****   huart2.Init.OverSampling = UART_OVERSAMPLING_16;
 952              		.loc 1 420 3 is_stmt 1 view .LVU260
 420:Core/Src/main.c ****   huart2.Init.OverSampling = UART_OVERSAMPLING_16;
 953              		.loc 1 420 25 is_stmt 0 view .LVU261
 954 001a 8361     		str	r3, [r0, #24]
 421:Core/Src/main.c ****   if (HAL_UART_Init(&huart2) != HAL_OK)
 955              		.loc 1 421 3 is_stmt 1 view .LVU262
 421:Core/Src/main.c ****   if (HAL_UART_Init(&huart2) != HAL_OK)
 956              		.loc 1 421 28 is_stmt 0 view .LVU263
ARM GAS  C:\Users\bulli\AppData\Local\Temp\ccMLKjFn.s 			page 45


 957 001c C361     		str	r3, [r0, #28]
 422:Core/Src/main.c ****   {
 958              		.loc 1 422 3 is_stmt 1 view .LVU264
 422:Core/Src/main.c ****   {
 959              		.loc 1 422 7 is_stmt 0 view .LVU265
 960 001e FFF7FEFF 		bl	HAL_UART_Init
 961              	.LVL53:
 422:Core/Src/main.c ****   {
 962              		.loc 1 422 6 discriminator 1 view .LVU266
 963 0022 00B9     		cbnz	r0, .L70
 430:Core/Src/main.c **** 
 964              		.loc 1 430 1 view .LVU267
 965 0024 08BD     		pop	{r3, pc}
 966              	.L70:
 424:Core/Src/main.c ****   }
 967              		.loc 1 424 5 is_stmt 1 view .LVU268
 968 0026 FFF7FEFF 		bl	Error_Handler
 969              	.LVL54:
 970              	.L72:
 971 002a 00BF     		.align	2
 972              	.L71:
 973 002c 00000000 		.word	huart2
 974 0030 00440040 		.word	1073759232
 975              		.cfi_endproc
 976              	.LFE143:
 978              		.section	.text.MX_TIM2_Init,"ax",%progbits
 979              		.align	1
 980              		.syntax unified
 981              		.thumb
 982              		.thumb_func
 984              	MX_TIM2_Init:
 985              	.LFB142:
 341:Core/Src/main.c **** 
 986              		.loc 1 341 1 view -0
 987              		.cfi_startproc
 988              		@ args = 0, pretend = 0, frame = 56
 989              		@ frame_needed = 0, uses_anonymous_args = 0
 990 0000 00B5     		push	{lr}
 991              		.cfi_def_cfa_offset 4
 992              		.cfi_offset 14, -4
 993 0002 8FB0     		sub	sp, sp, #60
 994              		.cfi_def_cfa_offset 64
 347:Core/Src/main.c ****   TIM_MasterConfigTypeDef sMasterConfig = {0};
 995              		.loc 1 347 3 view .LVU270
 347:Core/Src/main.c ****   TIM_MasterConfigTypeDef sMasterConfig = {0};
 996              		.loc 1 347 26 is_stmt 0 view .LVU271
 997 0004 0023     		movs	r3, #0
 998 0006 0A93     		str	r3, [sp, #40]
 999 0008 0B93     		str	r3, [sp, #44]
 1000 000a 0C93     		str	r3, [sp, #48]
 1001 000c 0D93     		str	r3, [sp, #52]
 348:Core/Src/main.c ****   TIM_OC_InitTypeDef sConfigOC = {0};
 1002              		.loc 1 348 3 is_stmt 1 view .LVU272
 348:Core/Src/main.c ****   TIM_OC_InitTypeDef sConfigOC = {0};
 1003              		.loc 1 348 27 is_stmt 0 view .LVU273
 1004 000e 0893     		str	r3, [sp, #32]
 1005 0010 0993     		str	r3, [sp, #36]
ARM GAS  C:\Users\bulli\AppData\Local\Temp\ccMLKjFn.s 			page 46


 349:Core/Src/main.c **** 
 1006              		.loc 1 349 3 is_stmt 1 view .LVU274
 349:Core/Src/main.c **** 
 1007              		.loc 1 349 22 is_stmt 0 view .LVU275
 1008 0012 0193     		str	r3, [sp, #4]
 1009 0014 0293     		str	r3, [sp, #8]
 1010 0016 0393     		str	r3, [sp, #12]
 1011 0018 0493     		str	r3, [sp, #16]
 1012 001a 0593     		str	r3, [sp, #20]
 1013 001c 0693     		str	r3, [sp, #24]
 1014 001e 0793     		str	r3, [sp, #28]
 354:Core/Src/main.c ****   htim2.Init.Prescaler = 1679;
 1015              		.loc 1 354 3 is_stmt 1 view .LVU276
 354:Core/Src/main.c ****   htim2.Init.Prescaler = 1679;
 1016              		.loc 1 354 18 is_stmt 0 view .LVU277
 1017 0020 2448     		ldr	r0, .L87
 1018 0022 4FF08042 		mov	r2, #1073741824
 1019 0026 0260     		str	r2, [r0]
 355:Core/Src/main.c ****   htim2.Init.CounterMode = TIM_COUNTERMODE_UP;
 1020              		.loc 1 355 3 is_stmt 1 view .LVU278
 355:Core/Src/main.c ****   htim2.Init.CounterMode = TIM_COUNTERMODE_UP;
 1021              		.loc 1 355 24 is_stmt 0 view .LVU279
 1022 0028 40F28F62 		movw	r2, #1679
 1023 002c 4260     		str	r2, [r0, #4]
 356:Core/Src/main.c ****   htim2.Init.Period = 999;
 1024              		.loc 1 356 3 is_stmt 1 view .LVU280
 356:Core/Src/main.c ****   htim2.Init.Period = 999;
 1025              		.loc 1 356 26 is_stmt 0 view .LVU281
 1026 002e 8360     		str	r3, [r0, #8]
 357:Core/Src/main.c ****   htim2.Init.ClockDivision = TIM_CLOCKDIVISION_DIV1;
 1027              		.loc 1 357 3 is_stmt 1 view .LVU282
 357:Core/Src/main.c ****   htim2.Init.ClockDivision = TIM_CLOCKDIVISION_DIV1;
 1028              		.loc 1 357 21 is_stmt 0 view .LVU283
 1029 0030 40F2E732 		movw	r2, #999
 1030 0034 C260     		str	r2, [r0, #12]
 358:Core/Src/main.c ****   htim2.Init.AutoReloadPreload = TIM_AUTORELOAD_PRELOAD_ENABLE;
 1031              		.loc 1 358 3 is_stmt 1 view .LVU284
 358:Core/Src/main.c ****   htim2.Init.AutoReloadPreload = TIM_AUTORELOAD_PRELOAD_ENABLE;
 1032              		.loc 1 358 28 is_stmt 0 view .LVU285
 1033 0036 0361     		str	r3, [r0, #16]
 359:Core/Src/main.c ****   if (HAL_TIM_Base_Init(&htim2) != HAL_OK)
 1034              		.loc 1 359 3 is_stmt 1 view .LVU286
 359:Core/Src/main.c ****   if (HAL_TIM_Base_Init(&htim2) != HAL_OK)
 1035              		.loc 1 359 32 is_stmt 0 view .LVU287
 1036 0038 8023     		movs	r3, #128
 1037 003a 8361     		str	r3, [r0, #24]
 360:Core/Src/main.c ****   {
 1038              		.loc 1 360 3 is_stmt 1 view .LVU288
 360:Core/Src/main.c ****   {
 1039              		.loc 1 360 7 is_stmt 0 view .LVU289
 1040 003c FFF7FEFF 		bl	HAL_TIM_Base_Init
 1041              	.LVL55:
 360:Core/Src/main.c ****   {
 1042              		.loc 1 360 6 discriminator 1 view .LVU290
 1043 0040 58BB     		cbnz	r0, .L81
 364:Core/Src/main.c ****   if (HAL_TIM_ConfigClockSource(&htim2, &sClockSourceConfig) != HAL_OK)
 1044              		.loc 1 364 3 is_stmt 1 view .LVU291
ARM GAS  C:\Users\bulli\AppData\Local\Temp\ccMLKjFn.s 			page 47


 364:Core/Src/main.c ****   if (HAL_TIM_ConfigClockSource(&htim2, &sClockSourceConfig) != HAL_OK)
 1045              		.loc 1 364 34 is_stmt 0 view .LVU292
 1046 0042 4FF48053 		mov	r3, #4096
 1047 0046 0A93     		str	r3, [sp, #40]
 365:Core/Src/main.c ****   {
 1048              		.loc 1 365 3 is_stmt 1 view .LVU293
 365:Core/Src/main.c ****   {
 1049              		.loc 1 365 7 is_stmt 0 view .LVU294
 1050 0048 0AA9     		add	r1, sp, #40
 1051 004a 1A48     		ldr	r0, .L87
 1052 004c FFF7FEFF 		bl	HAL_TIM_ConfigClockSource
 1053              	.LVL56:
 365:Core/Src/main.c ****   {
 1054              		.loc 1 365 6 discriminator 1 view .LVU295
 1055 0050 28BB     		cbnz	r0, .L82
 369:Core/Src/main.c ****   {
 1056              		.loc 1 369 3 is_stmt 1 view .LVU296
 369:Core/Src/main.c ****   {
 1057              		.loc 1 369 7 is_stmt 0 view .LVU297
 1058 0052 1848     		ldr	r0, .L87
 1059 0054 FFF7FEFF 		bl	HAL_TIM_PWM_Init
 1060              	.LVL57:
 369:Core/Src/main.c ****   {
 1061              		.loc 1 369 6 discriminator 1 view .LVU298
 1062 0058 18BB     		cbnz	r0, .L83
 373:Core/Src/main.c ****   sMasterConfig.MasterSlaveMode = TIM_MASTERSLAVEMODE_DISABLE;
 1063              		.loc 1 373 3 is_stmt 1 view .LVU299
 373:Core/Src/main.c ****   sMasterConfig.MasterSlaveMode = TIM_MASTERSLAVEMODE_DISABLE;
 1064              		.loc 1 373 37 is_stmt 0 view .LVU300
 1065 005a 0890     		str	r0, [sp, #32]
 374:Core/Src/main.c ****   if (HAL_TIMEx_MasterConfigSynchronization(&htim2, &sMasterConfig) != HAL_OK)
 1066              		.loc 1 374 3 is_stmt 1 view .LVU301
 374:Core/Src/main.c ****   if (HAL_TIMEx_MasterConfigSynchronization(&htim2, &sMasterConfig) != HAL_OK)
 1067              		.loc 1 374 33 is_stmt 0 view .LVU302
 1068 005c 0990     		str	r0, [sp, #36]
 375:Core/Src/main.c ****   {
 1069              		.loc 1 375 3 is_stmt 1 view .LVU303
 375:Core/Src/main.c ****   {
 1070              		.loc 1 375 7 is_stmt 0 view .LVU304
 1071 005e 08A9     		add	r1, sp, #32
 1072 0060 1448     		ldr	r0, .L87
 1073 0062 FFF7FEFF 		bl	HAL_TIMEx_MasterConfigSynchronization
 1074              	.LVL58:
 375:Core/Src/main.c ****   {
 1075              		.loc 1 375 6 discriminator 1 view .LVU305
 1076 0066 F0B9     		cbnz	r0, .L84
 379:Core/Src/main.c ****   sConfigOC.Pulse = 75;
 1077              		.loc 1 379 3 is_stmt 1 view .LVU306
 379:Core/Src/main.c ****   sConfigOC.Pulse = 75;
 1078              		.loc 1 379 20 is_stmt 0 view .LVU307
 1079 0068 6023     		movs	r3, #96
 1080 006a 0193     		str	r3, [sp, #4]
 380:Core/Src/main.c ****   sConfigOC.OCPolarity = TIM_OCPOLARITY_HIGH;
 1081              		.loc 1 380 3 is_stmt 1 view .LVU308
 380:Core/Src/main.c ****   sConfigOC.OCPolarity = TIM_OCPOLARITY_HIGH;
 1082              		.loc 1 380 19 is_stmt 0 view .LVU309
 1083 006c 4B23     		movs	r3, #75
ARM GAS  C:\Users\bulli\AppData\Local\Temp\ccMLKjFn.s 			page 48


 1084 006e 0293     		str	r3, [sp, #8]
 381:Core/Src/main.c ****   sConfigOC.OCFastMode = TIM_OCFAST_DISABLE;
 1085              		.loc 1 381 3 is_stmt 1 view .LVU310
 381:Core/Src/main.c ****   sConfigOC.OCFastMode = TIM_OCFAST_DISABLE;
 1086              		.loc 1 381 24 is_stmt 0 view .LVU311
 1087 0070 0246     		mov	r2, r0
 1088 0072 0390     		str	r0, [sp, #12]
 382:Core/Src/main.c ****   if (HAL_TIM_PWM_ConfigChannel(&htim2, &sConfigOC, TIM_CHANNEL_1) != HAL_OK)
 1089              		.loc 1 382 3 is_stmt 1 view .LVU312
 382:Core/Src/main.c ****   if (HAL_TIM_PWM_ConfigChannel(&htim2, &sConfigOC, TIM_CHANNEL_1) != HAL_OK)
 1090              		.loc 1 382 24 is_stmt 0 view .LVU313
 1091 0074 0590     		str	r0, [sp, #20]
 383:Core/Src/main.c ****   {
 1092              		.loc 1 383 3 is_stmt 1 view .LVU314
 383:Core/Src/main.c ****   {
 1093              		.loc 1 383 7 is_stmt 0 view .LVU315
 1094 0076 01A9     		add	r1, sp, #4
 1095 0078 0E48     		ldr	r0, .L87
 1096 007a FFF7FEFF 		bl	HAL_TIM_PWM_ConfigChannel
 1097              	.LVL59:
 383:Core/Src/main.c ****   {
 1098              		.loc 1 383 6 discriminator 1 view .LVU316
 1099 007e A0B9     		cbnz	r0, .L85
 387:Core/Src/main.c ****   if (HAL_TIM_PWM_ConfigChannel(&htim2, &sConfigOC, TIM_CHANNEL_2) != HAL_OK)
 1100              		.loc 1 387 3 is_stmt 1 view .LVU317
 387:Core/Src/main.c ****   if (HAL_TIM_PWM_ConfigChannel(&htim2, &sConfigOC, TIM_CHANNEL_2) != HAL_OK)
 1101              		.loc 1 387 19 is_stmt 0 view .LVU318
 1102 0080 0290     		str	r0, [sp, #8]
 388:Core/Src/main.c ****   {
 1103              		.loc 1 388 3 is_stmt 1 view .LVU319
 388:Core/Src/main.c ****   {
 1104              		.loc 1 388 7 is_stmt 0 view .LVU320
 1105 0082 0422     		movs	r2, #4
 1106 0084 0DEB0201 		add	r1, sp, r2
 1107 0088 0A48     		ldr	r0, .L87
 1108 008a FFF7FEFF 		bl	HAL_TIM_PWM_ConfigChannel
 1109              	.LVL60:
 388:Core/Src/main.c ****   {
 1110              		.loc 1 388 6 discriminator 1 view .LVU321
 1111 008e 70B9     		cbnz	r0, .L86
 395:Core/Src/main.c **** 
 1112              		.loc 1 395 3 is_stmt 1 view .LVU322
 1113 0090 0848     		ldr	r0, .L87
 1114 0092 FFF7FEFF 		bl	HAL_TIM_MspPostInit
 1115              	.LVL61:
 397:Core/Src/main.c **** 
 1116              		.loc 1 397 1 is_stmt 0 view .LVU323
 1117 0096 0FB0     		add	sp, sp, #60
 1118              		.cfi_remember_state
 1119              		.cfi_def_cfa_offset 4
 1120              		@ sp needed
 1121 0098 00BD     		pop	{pc}
 1122              	.L81:
 1123              		.cfi_restore_state
 362:Core/Src/main.c ****   }
 1124              		.loc 1 362 5 is_stmt 1 view .LVU324
 1125 009a FFF7FEFF 		bl	Error_Handler
ARM GAS  C:\Users\bulli\AppData\Local\Temp\ccMLKjFn.s 			page 49


 1126              	.LVL62:
 1127              	.L82:
 367:Core/Src/main.c ****   }
 1128              		.loc 1 367 5 view .LVU325
 1129 009e FFF7FEFF 		bl	Error_Handler
 1130              	.LVL63:
 1131              	.L83:
 371:Core/Src/main.c ****   }
 1132              		.loc 1 371 5 view .LVU326
 1133 00a2 FFF7FEFF 		bl	Error_Handler
 1134              	.LVL64:
 1135              	.L84:
 377:Core/Src/main.c ****   }
 1136              		.loc 1 377 5 view .LVU327
 1137 00a6 FFF7FEFF 		bl	Error_Handler
 1138              	.LVL65:
 1139              	.L85:
 385:Core/Src/main.c ****   }
 1140              		.loc 1 385 5 view .LVU328
 1141 00aa FFF7FEFF 		bl	Error_Handler
 1142              	.LVL66:
 1143              	.L86:
 390:Core/Src/main.c ****   }
 1144              		.loc 1 390 5 view .LVU329
 1145 00ae FFF7FEFF 		bl	Error_Handler
 1146              	.LVL67:
 1147              	.L88:
 1148 00b2 00BF     		.align	2
 1149              	.L87:
 1150 00b4 00000000 		.word	htim2
 1151              		.cfi_endproc
 1152              	.LFE142:
 1154              		.section	.text.SystemClock_Config,"ax",%progbits
 1155              		.align	1
 1156              		.global	SystemClock_Config
 1157              		.syntax unified
 1158              		.thumb
 1159              		.thumb_func
 1161              	SystemClock_Config:
 1162              	.LFB141:
 295:Core/Src/main.c ****   RCC_OscInitTypeDef RCC_OscInitStruct = {0};
 1163              		.loc 1 295 1 view -0
 1164              		.cfi_startproc
 1165              		@ args = 0, pretend = 0, frame = 80
 1166              		@ frame_needed = 0, uses_anonymous_args = 0
 1167 0000 10B5     		push	{r4, lr}
 1168              		.cfi_def_cfa_offset 8
 1169              		.cfi_offset 4, -8
 1170              		.cfi_offset 14, -4
 1171 0002 94B0     		sub	sp, sp, #80
 1172              		.cfi_def_cfa_offset 88
 296:Core/Src/main.c ****   RCC_ClkInitTypeDef RCC_ClkInitStruct = {0};
 1173              		.loc 1 296 3 view .LVU331
 296:Core/Src/main.c ****   RCC_ClkInitTypeDef RCC_ClkInitStruct = {0};
 1174              		.loc 1 296 22 is_stmt 0 view .LVU332
 1175 0004 08AC     		add	r4, sp, #32
 1176 0006 3022     		movs	r2, #48
ARM GAS  C:\Users\bulli\AppData\Local\Temp\ccMLKjFn.s 			page 50


 1177 0008 0021     		movs	r1, #0
 1178 000a 2046     		mov	r0, r4
 1179 000c FFF7FEFF 		bl	memset
 1180              	.LVL68:
 297:Core/Src/main.c **** 
 1181              		.loc 1 297 3 is_stmt 1 view .LVU333
 297:Core/Src/main.c **** 
 1182              		.loc 1 297 22 is_stmt 0 view .LVU334
 1183 0010 0023     		movs	r3, #0
 1184 0012 0393     		str	r3, [sp, #12]
 1185 0014 0493     		str	r3, [sp, #16]
 1186 0016 0593     		str	r3, [sp, #20]
 1187 0018 0693     		str	r3, [sp, #24]
 1188 001a 0793     		str	r3, [sp, #28]
 301:Core/Src/main.c ****   __HAL_PWR_VOLTAGESCALING_CONFIG(PWR_REGULATOR_VOLTAGE_SCALE2);
 1189              		.loc 1 301 3 is_stmt 1 view .LVU335
 1190              	.LBB24:
 301:Core/Src/main.c ****   __HAL_PWR_VOLTAGESCALING_CONFIG(PWR_REGULATOR_VOLTAGE_SCALE2);
 1191              		.loc 1 301 3 view .LVU336
 1192 001c 0193     		str	r3, [sp, #4]
 301:Core/Src/main.c ****   __HAL_PWR_VOLTAGESCALING_CONFIG(PWR_REGULATOR_VOLTAGE_SCALE2);
 1193              		.loc 1 301 3 view .LVU337
 1194 001e 1F4A     		ldr	r2, .L95
 1195 0020 116C     		ldr	r1, [r2, #64]
 1196 0022 41F08051 		orr	r1, r1, #268435456
 1197 0026 1164     		str	r1, [r2, #64]
 301:Core/Src/main.c ****   __HAL_PWR_VOLTAGESCALING_CONFIG(PWR_REGULATOR_VOLTAGE_SCALE2);
 1198              		.loc 1 301 3 view .LVU338
 1199 0028 126C     		ldr	r2, [r2, #64]
 1200 002a 02F08052 		and	r2, r2, #268435456
 1201 002e 0192     		str	r2, [sp, #4]
 301:Core/Src/main.c ****   __HAL_PWR_VOLTAGESCALING_CONFIG(PWR_REGULATOR_VOLTAGE_SCALE2);
 1202              		.loc 1 301 3 view .LVU339
 1203 0030 019A     		ldr	r2, [sp, #4]
 1204              	.LBE24:
 301:Core/Src/main.c ****   __HAL_PWR_VOLTAGESCALING_CONFIG(PWR_REGULATOR_VOLTAGE_SCALE2);
 1205              		.loc 1 301 3 view .LVU340
 302:Core/Src/main.c **** 
 1206              		.loc 1 302 3 view .LVU341
 1207              	.LBB25:
 302:Core/Src/main.c **** 
 1208              		.loc 1 302 3 view .LVU342
 1209 0032 0293     		str	r3, [sp, #8]
 302:Core/Src/main.c **** 
 1210              		.loc 1 302 3 view .LVU343
 1211 0034 1A4A     		ldr	r2, .L95+4
 1212 0036 1368     		ldr	r3, [r2]
 1213 0038 23F44043 		bic	r3, r3, #49152
 1214 003c 43F40043 		orr	r3, r3, #32768
 1215 0040 1360     		str	r3, [r2]
 302:Core/Src/main.c **** 
 1216              		.loc 1 302 3 view .LVU344
 1217 0042 1368     		ldr	r3, [r2]
 1218 0044 03F44043 		and	r3, r3, #49152
 1219 0048 0293     		str	r3, [sp, #8]
 302:Core/Src/main.c **** 
 1220              		.loc 1 302 3 view .LVU345
ARM GAS  C:\Users\bulli\AppData\Local\Temp\ccMLKjFn.s 			page 51


 1221 004a 029B     		ldr	r3, [sp, #8]
 1222              	.LBE25:
 302:Core/Src/main.c **** 
 1223              		.loc 1 302 3 view .LVU346
 307:Core/Src/main.c ****   RCC_OscInitStruct.HSEState = RCC_HSE_BYPASS;
 1224              		.loc 1 307 3 view .LVU347
 307:Core/Src/main.c ****   RCC_OscInitStruct.HSEState = RCC_HSE_BYPASS;
 1225              		.loc 1 307 36 is_stmt 0 view .LVU348
 1226 004c 0123     		movs	r3, #1
 1227 004e 0893     		str	r3, [sp, #32]
 308:Core/Src/main.c ****   RCC_OscInitStruct.PLL.PLLState = RCC_PLL_ON;
 1228              		.loc 1 308 3 is_stmt 1 view .LVU349
 308:Core/Src/main.c ****   RCC_OscInitStruct.PLL.PLLState = RCC_PLL_ON;
 1229              		.loc 1 308 30 is_stmt 0 view .LVU350
 1230 0050 4FF4A023 		mov	r3, #327680
 1231 0054 0993     		str	r3, [sp, #36]
 309:Core/Src/main.c ****   RCC_OscInitStruct.PLL.PLLSource = RCC_PLLSOURCE_HSE;
 1232              		.loc 1 309 3 is_stmt 1 view .LVU351
 309:Core/Src/main.c ****   RCC_OscInitStruct.PLL.PLLSource = RCC_PLLSOURCE_HSE;
 1233              		.loc 1 309 34 is_stmt 0 view .LVU352
 1234 0056 0223     		movs	r3, #2
 1235 0058 0E93     		str	r3, [sp, #56]
 310:Core/Src/main.c ****   RCC_OscInitStruct.PLL.PLLM = 4;
 1236              		.loc 1 310 3 is_stmt 1 view .LVU353
 310:Core/Src/main.c ****   RCC_OscInitStruct.PLL.PLLM = 4;
 1237              		.loc 1 310 35 is_stmt 0 view .LVU354
 1238 005a 4FF48002 		mov	r2, #4194304
 1239 005e 0F92     		str	r2, [sp, #60]
 311:Core/Src/main.c ****   RCC_OscInitStruct.PLL.PLLN = 84;
 1240              		.loc 1 311 3 is_stmt 1 view .LVU355
 311:Core/Src/main.c ****   RCC_OscInitStruct.PLL.PLLN = 84;
 1241              		.loc 1 311 30 is_stmt 0 view .LVU356
 1242 0060 0422     		movs	r2, #4
 1243 0062 1092     		str	r2, [sp, #64]
 312:Core/Src/main.c ****   RCC_OscInitStruct.PLL.PLLP = RCC_PLLP_DIV2;
 1244              		.loc 1 312 3 is_stmt 1 view .LVU357
 312:Core/Src/main.c ****   RCC_OscInitStruct.PLL.PLLP = RCC_PLLP_DIV2;
 1245              		.loc 1 312 30 is_stmt 0 view .LVU358
 1246 0064 5422     		movs	r2, #84
 1247 0066 1192     		str	r2, [sp, #68]
 313:Core/Src/main.c ****   RCC_OscInitStruct.PLL.PLLQ = 7;
 1248              		.loc 1 313 3 is_stmt 1 view .LVU359
 313:Core/Src/main.c ****   RCC_OscInitStruct.PLL.PLLQ = 7;
 1249              		.loc 1 313 30 is_stmt 0 view .LVU360
 1250 0068 1293     		str	r3, [sp, #72]
 314:Core/Src/main.c ****   if (HAL_RCC_OscConfig(&RCC_OscInitStruct) != HAL_OK)
 1251              		.loc 1 314 3 is_stmt 1 view .LVU361
 314:Core/Src/main.c ****   if (HAL_RCC_OscConfig(&RCC_OscInitStruct) != HAL_OK)
 1252              		.loc 1 314 30 is_stmt 0 view .LVU362
 1253 006a 0723     		movs	r3, #7
 1254 006c 1393     		str	r3, [sp, #76]
 315:Core/Src/main.c ****   {
 1255              		.loc 1 315 3 is_stmt 1 view .LVU363
 315:Core/Src/main.c ****   {
 1256              		.loc 1 315 7 is_stmt 0 view .LVU364
 1257 006e 2046     		mov	r0, r4
 1258 0070 FFF7FEFF 		bl	HAL_RCC_OscConfig
ARM GAS  C:\Users\bulli\AppData\Local\Temp\ccMLKjFn.s 			page 52


 1259              	.LVL69:
 315:Core/Src/main.c ****   {
 1260              		.loc 1 315 6 discriminator 1 view .LVU365
 1261 0074 70B9     		cbnz	r0, .L93
 322:Core/Src/main.c ****                               |RCC_CLOCKTYPE_PCLK1|RCC_CLOCKTYPE_PCLK2;
 1262              		.loc 1 322 3 is_stmt 1 view .LVU366
 322:Core/Src/main.c ****                               |RCC_CLOCKTYPE_PCLK1|RCC_CLOCKTYPE_PCLK2;
 1263              		.loc 1 322 31 is_stmt 0 view .LVU367
 1264 0076 0F23     		movs	r3, #15
 1265 0078 0393     		str	r3, [sp, #12]
 324:Core/Src/main.c ****   RCC_ClkInitStruct.AHBCLKDivider = RCC_SYSCLK_DIV1;
 1266              		.loc 1 324 3 is_stmt 1 view .LVU368
 324:Core/Src/main.c ****   RCC_ClkInitStruct.AHBCLKDivider = RCC_SYSCLK_DIV1;
 1267              		.loc 1 324 34 is_stmt 0 view .LVU369
 1268 007a 0221     		movs	r1, #2
 1269 007c 0491     		str	r1, [sp, #16]
 325:Core/Src/main.c ****   RCC_ClkInitStruct.APB1CLKDivider = RCC_HCLK_DIV2;
 1270              		.loc 1 325 3 is_stmt 1 view .LVU370
 325:Core/Src/main.c ****   RCC_ClkInitStruct.APB1CLKDivider = RCC_HCLK_DIV2;
 1271              		.loc 1 325 35 is_stmt 0 view .LVU371
 1272 007e 0590     		str	r0, [sp, #20]
 326:Core/Src/main.c ****   RCC_ClkInitStruct.APB2CLKDivider = RCC_HCLK_DIV1;
 1273              		.loc 1 326 3 is_stmt 1 view .LVU372
 326:Core/Src/main.c ****   RCC_ClkInitStruct.APB2CLKDivider = RCC_HCLK_DIV1;
 1274              		.loc 1 326 36 is_stmt 0 view .LVU373
 1275 0080 4FF48052 		mov	r2, #4096
 1276 0084 0692     		str	r2, [sp, #24]
 327:Core/Src/main.c **** 
 1277              		.loc 1 327 3 is_stmt 1 view .LVU374
 327:Core/Src/main.c **** 
 1278              		.loc 1 327 36 is_stmt 0 view .LVU375
 1279 0086 0790     		str	r0, [sp, #28]
 329:Core/Src/main.c ****   {
 1280              		.loc 1 329 3 is_stmt 1 view .LVU376
 329:Core/Src/main.c ****   {
 1281              		.loc 1 329 7 is_stmt 0 view .LVU377
 1282 0088 03A8     		add	r0, sp, #12
 1283 008a FFF7FEFF 		bl	HAL_RCC_ClockConfig
 1284              	.LVL70:
 329:Core/Src/main.c ****   {
 1285              		.loc 1 329 6 discriminator 1 view .LVU378
 1286 008e 18B9     		cbnz	r0, .L94
 333:Core/Src/main.c **** 
 1287              		.loc 1 333 1 view .LVU379
 1288 0090 14B0     		add	sp, sp, #80
 1289              		.cfi_remember_state
 1290              		.cfi_def_cfa_offset 8
 1291              		@ sp needed
 1292 0092 10BD     		pop	{r4, pc}
 1293              	.L93:
 1294              		.cfi_restore_state
 317:Core/Src/main.c ****   }
 1295              		.loc 1 317 5 is_stmt 1 view .LVU380
 1296 0094 FFF7FEFF 		bl	Error_Handler
 1297              	.LVL71:
 1298              	.L94:
 331:Core/Src/main.c ****   }
ARM GAS  C:\Users\bulli\AppData\Local\Temp\ccMLKjFn.s 			page 53


 1299              		.loc 1 331 5 view .LVU381
 1300 0098 FFF7FEFF 		bl	Error_Handler
 1301              	.LVL72:
 1302              	.L96:
 1303              		.align	2
 1304              	.L95:
 1305 009c 00380240 		.word	1073887232
 1306 00a0 00700040 		.word	1073770496
 1307              		.cfi_endproc
 1308              	.LFE141:
 1310              		.section	.text.main,"ax",%progbits
 1311              		.align	1
 1312              		.global	main
 1313              		.syntax unified
 1314              		.thumb
 1315              		.thumb_func
 1317              	main:
 1318              	.LFB140:
 215:Core/Src/main.c **** 
 1319              		.loc 1 215 1 view -0
 1320              		.cfi_startproc
 1321              		@ args = 0, pretend = 0, frame = 8
 1322              		@ frame_needed = 0, uses_anonymous_args = 0
 1323 0000 30B5     		push	{r4, r5, lr}
 1324              		.cfi_def_cfa_offset 12
 1325              		.cfi_offset 4, -12
 1326              		.cfi_offset 5, -8
 1327              		.cfi_offset 14, -4
 1328 0002 83B0     		sub	sp, sp, #12
 1329              		.cfi_def_cfa_offset 24
 224:Core/Src/main.c **** 
 1330              		.loc 1 224 3 view .LVU383
 1331 0004 FFF7FEFF 		bl	HAL_Init
 1332              	.LVL73:
 231:Core/Src/main.c **** 
 1333              		.loc 1 231 3 view .LVU384
 1334 0008 FFF7FEFF 		bl	SystemClock_Config
 1335              	.LVL74:
 238:Core/Src/main.c ****   MX_USART2_UART_Init();
 1336              		.loc 1 238 3 view .LVU385
 1337 000c FFF7FEFF 		bl	MX_GPIO_Init
 1338              	.LVL75:
 239:Core/Src/main.c ****   MX_TIM2_Init();
 1339              		.loc 1 239 3 view .LVU386
 1340 0010 FFF7FEFF 		bl	MX_USART2_UART_Init
 1341              	.LVL76:
 240:Core/Src/main.c ****   /* USER CODE BEGIN 2 */
 1342              		.loc 1 240 3 view .LVU387
 1343 0014 FFF7FEFF 		bl	MX_TIM2_Init
 1344              	.LVL77:
 242:Core/Src/main.c **** 
 1345              		.loc 1 242 3 view .LVU388
 1346 0018 0122     		movs	r2, #1
 1347 001a 2949     		ldr	r1, .L107
 1348 001c 2948     		ldr	r0, .L107+4
 1349 001e FFF7FEFF 		bl	HAL_UART_Receive_IT
 1350              	.LVL78:
ARM GAS  C:\Users\bulli\AppData\Local\Temp\ccMLKjFn.s 			page 54


 245:Core/Src/main.c ****   HAL_TIM_PWM_Start(&htim2, TIM_CHANNEL_1);
 1351              		.loc 1 245 3 view .LVU389
 246:Core/Src/main.c ****   HAL_TIM_PWM_Start(&htim2, TIM_CHANNEL_2);
 1352              		.loc 1 246 3 view .LVU390
 1353 0022 294C     		ldr	r4, .L107+8
 1354 0024 0021     		movs	r1, #0
 1355 0026 2046     		mov	r0, r4
 1356 0028 FFF7FEFF 		bl	HAL_TIM_PWM_Start
 1357              	.LVL79:
 247:Core/Src/main.c **** 
 1358              		.loc 1 247 3 view .LVU391
 1359 002c 0421     		movs	r1, #4
 1360 002e 2046     		mov	r0, r4
 1361 0030 FFF7FEFF 		bl	HAL_TIM_PWM_Start
 1362              	.LVL80:
 250:Core/Src/main.c ****   update_gear_pwm(PWM_GEAR_FAILSAFE_US);
 1363              		.loc 1 250 3 view .LVU392
 1364 0034 40F27E40 		movw	r0, #1150
 1365 0038 FFF7FEFF 		bl	update_servo_pwm
 1366              	.LVL81:
 251:Core/Src/main.c ****   /* USER CODE END 2 */
 1367              		.loc 1 251 3 view .LVU393
 1368 003c 40F2DC50 		movw	r0, #1500
 1369 0040 FFF7FEFF 		bl	update_gear_pwm
 1370              	.LVL82:
 1371 0044 03E0     		b	.L98
 1372              	.L99:
 1373              	.LBB26:
 263:Core/Src/main.c **** 
 1374              		.loc 1 263 24 discriminator 4 view .LVU394
 1375 0046 9DF80700 		ldrb	r0, [sp, #7]	@ zero_extendqisi2
 1376 004a FFF7FEFF 		bl	parser_feed
 1377              	.LVL83:
 1378              	.L98:
 263:Core/Src/main.c **** 
 1379              		.loc 1 263 12 discriminator 2 view .LVU395
 1380 004e 0DF10700 		add	r0, sp, #7
 1381 0052 FFF7FEFF 		bl	rb_pop
 1382              	.LVL84:
 263:Core/Src/main.c **** 
 1383              		.loc 1 263 12 is_stmt 0 discriminator 3 view .LVU396
 1384 0056 0028     		cmp	r0, #0
 1385 0058 F5D1     		bne	.L99
 266:Core/Src/main.c ****     if (rc.link_ok && (now - rc.last_frame_tick) > FAILSAFE_MS) {
 1386              		.loc 1 266 5 is_stmt 1 view .LVU397
 266:Core/Src/main.c ****     if (rc.link_ok && (now - rc.last_frame_tick) > FAILSAFE_MS) {
 1387              		.loc 1 266 20 is_stmt 0 view .LVU398
 1388 005a FFF7FEFF 		bl	HAL_GetTick
 1389              	.LVL85:
 1390 005e 0446     		mov	r4, r0
 1391              	.LVL86:
 267:Core/Src/main.c ****         rc.link_ok = 0;
 1392              		.loc 1 267 5 is_stmt 1 view .LVU399
 267:Core/Src/main.c ****         rc.link_ok = 0;
 1393              		.loc 1 267 11 is_stmt 0 view .LVU400
 1394 0060 1A4B     		ldr	r3, .L107+12
 1395 0062 1B7B     		ldrb	r3, [r3, #12]	@ zero_extendqisi2
ARM GAS  C:\Users\bulli\AppData\Local\Temp\ccMLKjFn.s 			page 55


 267:Core/Src/main.c ****         rc.link_ok = 0;
 1396              		.loc 1 267 8 view .LVU401
 1397 0064 23B1     		cbz	r3, .L100
 267:Core/Src/main.c ****         rc.link_ok = 0;
 1398              		.loc 1 267 32 discriminator 1 view .LVU402
 1399 0066 194B     		ldr	r3, .L107+12
 1400 0068 9B68     		ldr	r3, [r3, #8]
 267:Core/Src/main.c ****         rc.link_ok = 0;
 1401              		.loc 1 267 28 discriminator 1 view .LVU403
 1402 006a C31A     		subs	r3, r0, r3
 267:Core/Src/main.c ****         rc.link_ok = 0;
 1403              		.loc 1 267 20 discriminator 1 view .LVU404
 1404 006c C82B     		cmp	r3, #200
 1405 006e 0ED8     		bhi	.L105
 1406              	.LVL87:
 1407              	.L100:
 277:Core/Src/main.c ****         HAL_GPIO_WritePin(LD2_GPIO_Port, LD2_Pin, GPIO_PIN_SET);
 1408              		.loc 1 277 5 is_stmt 1 view .LVU405
 277:Core/Src/main.c ****         HAL_GPIO_WritePin(LD2_GPIO_Port, LD2_Pin, GPIO_PIN_SET);
 1409              		.loc 1 277 11 is_stmt 0 view .LVU406
 1410 0070 164B     		ldr	r3, .L107+12
 1411 0072 1B7B     		ldrb	r3, [r3, #12]	@ zero_extendqisi2
 277:Core/Src/main.c ****         HAL_GPIO_WritePin(LD2_GPIO_Port, LD2_Pin, GPIO_PIN_SET);
 1412              		.loc 1 277 8 view .LVU407
 1413 0074 F3B9     		cbnz	r3, .L106
 1414              	.LBB27:
 280:Core/Src/main.c ****         if ((now - last_toggle) >= HEARTBEAT_MS) {
 1415              		.loc 1 280 9 is_stmt 1 view .LVU408
 281:Core/Src/main.c ****             HAL_GPIO_TogglePin(LD2_GPIO_Port, LD2_Pin);
 1416              		.loc 1 281 9 view .LVU409
 281:Core/Src/main.c ****             HAL_GPIO_TogglePin(LD2_GPIO_Port, LD2_Pin);
 1417              		.loc 1 281 18 is_stmt 0 view .LVU410
 1418 0076 164B     		ldr	r3, .L107+16
 1419 0078 1B68     		ldr	r3, [r3]
 1420 007a E31A     		subs	r3, r4, r3
 281:Core/Src/main.c ****             HAL_GPIO_TogglePin(LD2_GPIO_Port, LD2_Pin);
 1421              		.loc 1 281 12 view .LVU411
 1422 007c F92B     		cmp	r3, #249
 1423 007e E6D9     		bls	.L98
 282:Core/Src/main.c ****             last_toggle = now;
 1424              		.loc 1 282 13 is_stmt 1 view .LVU412
 1425 0080 2021     		movs	r1, #32
 1426 0082 1448     		ldr	r0, .L107+20
 1427 0084 FFF7FEFF 		bl	HAL_GPIO_TogglePin
 1428              	.LVL88:
 283:Core/Src/main.c ****         }
 1429              		.loc 1 283 13 view .LVU413
 283:Core/Src/main.c ****         }
 1430              		.loc 1 283 25 is_stmt 0 view .LVU414
 1431 0088 114B     		ldr	r3, .L107+16
 1432 008a 1C60     		str	r4, [r3]
 1433              	.LBE27:
 1434              	.LBE26:
 256:Core/Src/main.c ****   {
 1435              		.loc 1 256 9 is_stmt 1 view .LVU415
 257:Core/Src/main.c ****     /* USER CODE END WHILE */
 1436              		.loc 1 257 3 is_stmt 0 view .LVU416
ARM GAS  C:\Users\bulli\AppData\Local\Temp\ccMLKjFn.s 			page 56


 1437 008c DFE7     		b	.L98
 1438              	.LVL89:
 1439              	.L105:
 1440              	.LBB28:
 268:Core/Src/main.c ****         rc.ch1 = PWM_FAILSAFE_US;
 1441              		.loc 1 268 9 is_stmt 1 view .LVU417
 268:Core/Src/main.c ****         rc.ch1 = PWM_FAILSAFE_US;
 1442              		.loc 1 268 20 is_stmt 0 view .LVU418
 1443 008e 0F4B     		ldr	r3, .L107+12
 1444 0090 0022     		movs	r2, #0
 1445 0092 1A73     		strb	r2, [r3, #12]
 269:Core/Src/main.c ****         rc.ch3 = PWM_GEAR_FAILSAFE_US;
 1446              		.loc 1 269 9 is_stmt 1 view .LVU419
 269:Core/Src/main.c ****         rc.ch3 = PWM_GEAR_FAILSAFE_US;
 1447              		.loc 1 269 16 is_stmt 0 view .LVU420
 1448 0094 40F27E40 		movw	r0, #1150
 1449              	.LVL90:
 269:Core/Src/main.c ****         rc.ch3 = PWM_GEAR_FAILSAFE_US;
 1450              		.loc 1 269 16 view .LVU421
 1451 0098 1880     		strh	r0, [r3]	@ movhi
 270:Core/Src/main.c ****         rc.ch2 = rc.ch4 = FAILSAFE_CENTER;
 1452              		.loc 1 270 9 is_stmt 1 view .LVU422
 270:Core/Src/main.c ****         rc.ch2 = rc.ch4 = FAILSAFE_CENTER;
 1453              		.loc 1 270 16 is_stmt 0 view .LVU423
 1454 009a 40F2DC55 		movw	r5, #1500
 1455 009e 9D80     		strh	r5, [r3, #4]	@ movhi
 271:Core/Src/main.c ****         update_servo_pwm(PWM_FAILSAFE_US);
 1456              		.loc 1 271 9 is_stmt 1 view .LVU424
 271:Core/Src/main.c ****         update_servo_pwm(PWM_FAILSAFE_US);
 1457              		.loc 1 271 25 is_stmt 0 view .LVU425
 1458 00a0 4FF48062 		mov	r2, #1024
 1459 00a4 DA80     		strh	r2, [r3, #6]	@ movhi
 271:Core/Src/main.c ****         update_servo_pwm(PWM_FAILSAFE_US);
 1460              		.loc 1 271 16 view .LVU426
 1461 00a6 5A80     		strh	r2, [r3, #2]	@ movhi
 272:Core/Src/main.c ****         update_gear_pwm(PWM_GEAR_FAILSAFE_US);
 1462              		.loc 1 272 9 is_stmt 1 view .LVU427
 1463 00a8 FFF7FEFF 		bl	update_servo_pwm
 1464              	.LVL91:
 273:Core/Src/main.c ****     }
 1465              		.loc 1 273 9 view .LVU428
 1466 00ac 2846     		mov	r0, r5
 1467 00ae FFF7FEFF 		bl	update_gear_pwm
 1468              	.LVL92:
 1469 00b2 DDE7     		b	.L100
 1470              	.L106:
 278:Core/Src/main.c ****     } else {
 1471              		.loc 1 278 9 view .LVU429
 1472 00b4 0122     		movs	r2, #1
 1473 00b6 2021     		movs	r1, #32
 1474 00b8 0648     		ldr	r0, .L107+20
 1475 00ba FFF7FEFF 		bl	HAL_GPIO_WritePin
 1476              	.LVL93:
 1477 00be C6E7     		b	.L98
 1478              	.L108:
 1479              		.align	2
 1480              	.L107:
ARM GAS  C:\Users\bulli\AppData\Local\Temp\ccMLKjFn.s 			page 57


 1481 00c0 00000000 		.word	rx_byte
 1482 00c4 00000000 		.word	huart2
 1483 00c8 00000000 		.word	htim2
 1484 00cc 00000000 		.word	rc
 1485 00d0 00000000 		.word	last_toggle.0
 1486 00d4 00000240 		.word	1073872896
 1487              	.LBE28:
 1488              		.cfi_endproc
 1489              	.LFE140:
 1491              		.section	.bss.last_toggle.0,"aw",%nobits
 1492              		.align	2
 1495              	last_toggle.0:
 1496 0000 00000000 		.space	4
 1497              		.section	.bss.pidx,"aw",%nobits
 1500              	pidx:
 1501 0000 00       		.space	1
 1502              		.section	.bss.payload,"aw",%nobits
 1503              		.align	2
 1506              	payload:
 1507 0000 00000000 		.space	9
 1507      00000000 
 1507      00
 1508              		.section	.bss.pstate,"aw",%nobits
 1511              	pstate:
 1512 0000 00       		.space	1
 1513              		.section	.data.rc,"aw"
 1514              		.align	2
 1517              	rc:
 1518 0000 7E04     		.short	1150
 1519 0002 0004     		.short	1024
 1520 0004 DC05     		.short	1500
 1521 0006 0004     		.short	1024
 1522 0008 00000000 		.word	0
 1523 000c 00       		.byte	0
 1524 000d 000000   		.space	3
 1525              		.section	.bss.rb_tail,"aw",%nobits
 1526              		.align	1
 1529              	rb_tail:
 1530 0000 0000     		.space	2
 1531              		.section	.bss.rb_head,"aw",%nobits
 1532              		.align	1
 1535              	rb_head:
 1536 0000 0000     		.space	2
 1537              		.section	.bss.rb_buf,"aw",%nobits
 1538              		.align	2
 1541              	rb_buf:
 1542 0000 00000000 		.space	64
 1542      00000000 
 1542      00000000 
 1542      00000000 
 1542      00000000 
 1543              		.section	.bss.rx_byte,"aw",%nobits
 1546              	rx_byte:
 1547 0000 00       		.space	1
 1548              		.global	huart2
 1549              		.section	.bss.huart2,"aw",%nobits
 1550              		.align	2
ARM GAS  C:\Users\bulli\AppData\Local\Temp\ccMLKjFn.s 			page 58


 1553              	huart2:
 1554 0000 00000000 		.space	72
 1554      00000000 
 1554      00000000 
 1554      00000000 
 1554      00000000 
 1555              		.global	htim2
 1556              		.section	.bss.htim2,"aw",%nobits
 1557              		.align	2
 1560              	htim2:
 1561 0000 00000000 		.space	72
 1561      00000000 
 1561      00000000 
 1561      00000000 
 1561      00000000 
 1562              		.text
 1563              	.Letext0:
 1564              		.file 3 "C:/Users/bulli/AppData/Roaming/Code/User/globalStorage/bmd.stm32-for-vscode/@xpack-dev-to
 1565              		.file 4 "C:/Users/bulli/AppData/Roaming/Code/User/globalStorage/bmd.stm32-for-vscode/@xpack-dev-to
 1566              		.file 5 "Drivers/CMSIS/Device/ST/STM32F4xx/Include/stm32f401xe.h"
 1567              		.file 6 "Drivers/STM32F4xx_HAL_Driver/Inc/stm32f4xx_hal_def.h"
 1568              		.file 7 "Drivers/STM32F4xx_HAL_Driver/Inc/stm32f4xx_hal_rcc_ex.h"
 1569              		.file 8 "Drivers/STM32F4xx_HAL_Driver/Inc/stm32f4xx_hal_rcc.h"
 1570              		.file 9 "Drivers/STM32F4xx_HAL_Driver/Inc/stm32f4xx_hal_gpio.h"
 1571              		.file 10 "Drivers/STM32F4xx_HAL_Driver/Inc/stm32f4xx_hal_dma.h"
 1572              		.file 11 "Drivers/STM32F4xx_HAL_Driver/Inc/stm32f4xx_hal_tim.h"
 1573              		.file 12 "Drivers/STM32F4xx_HAL_Driver/Inc/stm32f4xx_hal_uart.h"
 1574              		.file 13 "Drivers/STM32F4xx_HAL_Driver/Inc/stm32f4xx_hal_tim_ex.h"
 1575              		.file 14 "Core/Inc/main.h"
 1576              		.file 15 "Drivers/STM32F4xx_HAL_Driver/Inc/stm32f4xx_hal.h"
 1577              		.file 16 "<built-in>"
ARM GAS  C:\Users\bulli\AppData\Local\Temp\ccMLKjFn.s 			page 59

