ARM GAS  C:\Users\bulli\AppData\Local\Temp\ccgdAJmu.s 			page 1


   1              		.cpu cortex-m4
   2              		.arch armv7e-m
   3              		.fpu fpv4-sp-d16
   4              		.eabi_attribute 27, 1
   5              		.eabi_attribute 28, 1
   6              		.eabi_attribute 20, 1
   7              		.eabi_attribute 21, 1
   8              		.eabi_attribute 23, 3
   9              		.eabi_attribute 24, 1
  10              		.eabi_attribute 25, 1
  11              		.eabi_attribute 26, 1
  12              		.eabi_attribute 30, 1
  13              		.eabi_attribute 34, 1
  14              		.eabi_attribute 18, 4
  15              		.file	"main.c"
  16              		.text
  17              	.Ltext0:
  18              		.cfi_sections	.debug_frame
  19              		.file 1 "Core/Src/main.c"
  20              		.section	.text.crc8_dallas,"ax",%progbits
  21              		.align	1
  22              		.syntax unified
  23              		.thumb
  24              		.thumb_func
  26              	crc8_dallas:
  27              	.LVL0:
  28              	.LFB134:
   1:Core/Src/main.c **** /* USER CODE BEGIN Header */
   2:Core/Src/main.c **** /**
   3:Core/Src/main.c ****   ******************************************************************************
   4:Core/Src/main.c ****   * @file           : main.c
   5:Core/Src/main.c ****   * @brief          : Main program body
   6:Core/Src/main.c ****   ******************************************************************************
   7:Core/Src/main.c ****   * @attention
   8:Core/Src/main.c ****   *
   9:Core/Src/main.c ****   * Copyright (c) 2026 STMicroelectronics.
  10:Core/Src/main.c ****   * All rights reserved.
  11:Core/Src/main.c ****   *
  12:Core/Src/main.c ****   * This software is licensed under terms that can be found in the LICENSE file
  13:Core/Src/main.c ****   * in the root directory of this software component.
  14:Core/Src/main.c ****   * If no LICENSE file comes with this software, it is provided AS-IS.
  15:Core/Src/main.c ****   *
  16:Core/Src/main.c ****   ******************************************************************************
  17:Core/Src/main.c ****   */
  18:Core/Src/main.c **** /* USER CODE END Header */
  19:Core/Src/main.c **** /* Includes ------------------------------------------------------------------*/
  20:Core/Src/main.c **** #include "main.h"
  21:Core/Src/main.c **** 
  22:Core/Src/main.c **** /* Private includes ----------------------------------------------------------*/
  23:Core/Src/main.c **** /* USER CODE BEGIN Includes */
  24:Core/Src/main.c **** #include <stdint.h>
  25:Core/Src/main.c **** #include <string.h>
  26:Core/Src/main.c **** /* USER CODE END Includes */
  27:Core/Src/main.c **** 
  28:Core/Src/main.c **** /* Private typedef -----------------------------------------------------------*/
  29:Core/Src/main.c **** /* USER CODE BEGIN PTD */
  30:Core/Src/main.c **** 
ARM GAS  C:\Users\bulli\AppData\Local\Temp\ccgdAJmu.s 			page 2


  31:Core/Src/main.c **** /* USER CODE END PTD */
  32:Core/Src/main.c **** 
  33:Core/Src/main.c **** /* Private define ------------------------------------------------------------*/
  34:Core/Src/main.c **** /* USER CODE BEGIN PD */
  35:Core/Src/main.c **** #define FRAME_LEN        11
  36:Core/Src/main.c **** #define SYNC1            0xAA
  37:Core/Src/main.c **** #define SYNC2            0x55
  38:Core/Src/main.c **** #define RINGBUF_SIZE     64
  39:Core/Src/main.c **** #define FAILSAFE_MS      200
  40:Core/Src/main.c **** #define FAILSAFE_CENTER  1024
  41:Core/Src/main.c **** #define HEARTBEAT_MS     250      /* 2 Hz toggle on lost link */
  42:Core/Src/main.c **** 
  43:Core/Src/main.c **** /* PWM servo control - inverted from datasheet due to actual servo behavior */
  44:Core/Src/main.c **** #define PWM_RETRACTED_US 1900     /* fully extended position (inverted) */
  45:Core/Src/main.c **** #define PWM_EXTENDED_US  1100     /* fully retracted position (inverted) */
  46:Core/Src/main.c **** #define PWM_FAILSAFE_US  1500     /* failsafe mid position */
  47:Core/Src/main.c **** #define PWM_PERIOD_US    20000    /* 50 Hz = 20ms period */
  48:Core/Src/main.c **** #define PWM_MAX_CCR      999      /* TIM2 counter period */
  49:Core/Src/main.c **** /* USER CODE END PD */
  50:Core/Src/main.c **** 
  51:Core/Src/main.c **** /* Private macro -------------------------------------------------------------*/
  52:Core/Src/main.c **** /* USER CODE BEGIN PM */
  53:Core/Src/main.c **** 
  54:Core/Src/main.c **** /* USER CODE END PM */
  55:Core/Src/main.c **** 
  56:Core/Src/main.c **** /* Private variables ---------------------------------------------------------*/
  57:Core/Src/main.c **** TIM_HandleTypeDef htim2;
  58:Core/Src/main.c **** 
  59:Core/Src/main.c **** UART_HandleTypeDef huart2;
  60:Core/Src/main.c **** 
  61:Core/Src/main.c **** /* USER CODE BEGIN PV */
  62:Core/Src/main.c **** /* ISR single-byte landing spot */
  63:Core/Src/main.c **** static uint8_t rx_byte;
  64:Core/Src/main.c **** 
  65:Core/Src/main.c **** /* SPSC ring buffer: ISR writes head, main reads tail — no lock needed */
  66:Core/Src/main.c **** static volatile uint8_t  rb_buf[RINGBUF_SIZE];
  67:Core/Src/main.c **** static volatile uint16_t rb_head = 0;
  68:Core/Src/main.c **** static volatile uint16_t rb_tail = 0;
  69:Core/Src/main.c **** 
  70:Core/Src/main.c **** typedef struct {
  71:Core/Src/main.c ****     uint16_t ch1, ch2, ch3, ch4;
  72:Core/Src/main.c ****     uint32_t last_frame_tick;
  73:Core/Src/main.c ****     uint8_t  link_ok;
  74:Core/Src/main.c **** } rc_state_t;
  75:Core/Src/main.c **** 
  76:Core/Src/main.c **** static rc_state_t rc = {
  77:Core/Src/main.c ****     .ch1 = FAILSAFE_CENTER, .ch2 = FAILSAFE_CENTER,
  78:Core/Src/main.c ****     .ch3 = FAILSAFE_CENTER, .ch4 = FAILSAFE_CENTER,
  79:Core/Src/main.c ****     .last_frame_tick = 0, .link_ok = 0
  80:Core/Src/main.c **** };
  81:Core/Src/main.c **** 
  82:Core/Src/main.c **** /* Parser state */
  83:Core/Src/main.c **** typedef enum {
  84:Core/Src/main.c ****     PS_SYNC1 = 0,   /* hunting for 0xAA                       */
  85:Core/Src/main.c ****     PS_SYNC2,       /* got 0xAA, expect 0x55                  */
  86:Core/Src/main.c ****     PS_PAYLOAD      /* collecting 9 bytes: 4*u16 LE + CRC8    */
  87:Core/Src/main.c **** } parser_state_t;
ARM GAS  C:\Users\bulli\AppData\Local\Temp\ccgdAJmu.s 			page 3


  88:Core/Src/main.c **** 
  89:Core/Src/main.c **** static parser_state_t pstate = PS_SYNC1;
  90:Core/Src/main.c **** static uint8_t        payload[FRAME_LEN - 2];
  91:Core/Src/main.c **** static uint8_t        pidx = 0;
  92:Core/Src/main.c **** /* USER CODE END PV */
  93:Core/Src/main.c **** 
  94:Core/Src/main.c **** /* Private function prototypes -----------------------------------------------*/
  95:Core/Src/main.c **** void SystemClock_Config(void);
  96:Core/Src/main.c **** static void MX_GPIO_Init(void);
  97:Core/Src/main.c **** static void MX_USART2_UART_Init(void);
  98:Core/Src/main.c **** static void MX_TIM2_Init(void);
  99:Core/Src/main.c **** /* USER CODE BEGIN PFP */
 100:Core/Src/main.c **** static uint8_t crc8_dallas(const uint8_t *data, uint8_t len);
 101:Core/Src/main.c **** static void    rb_push(uint8_t b);
 102:Core/Src/main.c **** static int     rb_pop(uint8_t *b);
 103:Core/Src/main.c **** static void    parser_feed(uint8_t b);
 104:Core/Src/main.c **** static void    update_servo_pwm(uint16_t ch1_value);
 105:Core/Src/main.c **** /* USER CODE END PFP */
 106:Core/Src/main.c **** 
 107:Core/Src/main.c **** /* Private user code ---------------------------------------------------------*/
 108:Core/Src/main.c **** /* USER CODE BEGIN 0 */
 109:Core/Src/main.c **** 
 110:Core/Src/main.c **** /* CRC8 Dallas/Maxim — reflected poly 0x8C, init 0x00, no final xor. */
 111:Core/Src/main.c **** static uint8_t crc8_dallas(const uint8_t *data, uint8_t len) {
  29              		.loc 1 111 62 view -0
  30              		.cfi_startproc
  31              		@ args = 0, pretend = 0, frame = 0
  32              		@ frame_needed = 0, uses_anonymous_args = 0
  33              		.loc 1 111 62 is_stmt 0 view .LVU1
  34 0000 10B5     		push	{r4, lr}
  35              		.cfi_def_cfa_offset 8
  36              		.cfi_offset 4, -8
  37              		.cfi_offset 14, -4
  38 0002 0446     		mov	r4, r0
 112:Core/Src/main.c ****     uint8_t crc = 0x00;
  39              		.loc 1 112 5 is_stmt 1 view .LVU2
  40              	.LVL1:
 113:Core/Src/main.c ****     for (uint8_t i = 0; i < len; i++) {
  41              		.loc 1 113 5 view .LVU3
  42              	.LBB4:
  43              		.loc 1 113 10 view .LVU4
  44              		.loc 1 113 18 is_stmt 0 view .LVU5
  45 0004 4FF0000E 		mov	lr, #0
  46              	.LBE4:
 112:Core/Src/main.c ****     uint8_t crc = 0x00;
  47              		.loc 1 112 13 view .LVU6
  48 0008 7046     		mov	r0, lr
  49              	.LVL2:
  50              	.LBB11:
  51              		.loc 1 113 5 view .LVU7
  52 000a 15E0     		b	.L2
  53              	.LVL3:
  54              	.L4:
  55              	.LBB5:
  56              	.LBB6:
  57              	.LBB7:
 114:Core/Src/main.c ****         uint8_t b = data[i];
ARM GAS  C:\Users\bulli\AppData\Local\Temp\ccgdAJmu.s 			page 4


 115:Core/Src/main.c ****         for (uint8_t j = 0; j < 8; j++) {
 116:Core/Src/main.c ****             uint8_t mix = (crc ^ b) & 0x01;
 117:Core/Src/main.c ****             crc >>= 1;
 118:Core/Src/main.c ****             if (mix) crc ^= 0x8C;
 119:Core/Src/main.c ****             b >>= 1;
  58              		.loc 1 119 13 is_stmt 1 view .LVU8
  59              		.loc 1 119 15 is_stmt 0 view .LVU9
  60 000c 4FEA5C0C 		lsr	ip, ip, #1
  61              	.LVL4:
  62              		.loc 1 119 15 view .LVU10
  63              	.LBE7:
 115:Core/Src/main.c ****             uint8_t mix = (crc ^ b) & 0x01;
  64              		.loc 1 115 37 is_stmt 1 discriminator 2 view .LVU11
  65 0010 0133     		adds	r3, r3, #1
  66              	.LVL5:
 115:Core/Src/main.c ****             uint8_t mix = (crc ^ b) & 0x01;
  67              		.loc 1 115 37 is_stmt 0 discriminator 2 view .LVU12
  68 0012 DBB2     		uxtb	r3, r3
  69              	.LVL6:
  70              	.L3:
 115:Core/Src/main.c ****             uint8_t mix = (crc ^ b) & 0x01;
  71              		.loc 1 115 31 is_stmt 1 discriminator 1 view .LVU13
  72 0014 072B     		cmp	r3, #7
  73 0016 0BD8     		bhi	.L8
  74              	.LBB8:
 116:Core/Src/main.c ****             crc >>= 1;
  75              		.loc 1 116 13 view .LVU14
 116:Core/Src/main.c ****             crc >>= 1;
  76              		.loc 1 116 37 is_stmt 0 view .LVU15
  77 0018 80EA0C02 		eor	r2, r0, ip
 117:Core/Src/main.c ****             if (mix) crc ^= 0x8C;
  78              		.loc 1 117 13 is_stmt 1 view .LVU16
 118:Core/Src/main.c ****             b >>= 1;
  79              		.loc 1 118 13 view .LVU17
 118:Core/Src/main.c ****             b >>= 1;
  80              		.loc 1 118 16 is_stmt 0 view .LVU18
  81 001c 12F0010F 		tst	r2, #1
  82 0020 4FEA5000 		lsr	r0, r0, #1
  83              	.LVL7:
 118:Core/Src/main.c ****             b >>= 1;
  84              		.loc 1 118 16 view .LVU19
  85 0024 F2D0     		beq	.L4
 118:Core/Src/main.c ****             b >>= 1;
  86              		.loc 1 118 22 is_stmt 1 discriminator 1 view .LVU20
 118:Core/Src/main.c ****             b >>= 1;
  87              		.loc 1 118 26 is_stmt 0 discriminator 1 view .LVU21
  88 0026 80F07300 		eor	r0, r0, #115
  89 002a C043     		mvns	r0, r0
  90 002c C0B2     		uxtb	r0, r0
  91 002e EDE7     		b	.L4
  92              	.LVL8:
  93              	.L8:
 118:Core/Src/main.c ****             b >>= 1;
  94              		.loc 1 118 26 discriminator 1 view .LVU22
  95              	.LBE8:
  96              	.LBE6:
  97              	.LBE5:
ARM GAS  C:\Users\bulli\AppData\Local\Temp\ccgdAJmu.s 			page 5


 113:Core/Src/main.c ****         uint8_t b = data[i];
  98              		.loc 1 113 35 is_stmt 1 discriminator 2 view .LVU23
  99 0030 0EF1010E 		add	lr, lr, #1
 100              	.LVL9:
 113:Core/Src/main.c ****         uint8_t b = data[i];
 101              		.loc 1 113 35 is_stmt 0 discriminator 2 view .LVU24
 102 0034 5FFA8EFE 		uxtb	lr, lr
 103              	.LVL10:
 104              	.L2:
 113:Core/Src/main.c ****         uint8_t b = data[i];
 105              		.loc 1 113 27 is_stmt 1 discriminator 1 view .LVU25
 106 0038 8E45     		cmp	lr, r1
 107 003a 03D2     		bcs	.L9
 108              	.LBB10:
 114:Core/Src/main.c ****         for (uint8_t j = 0; j < 8; j++) {
 109              		.loc 1 114 9 view .LVU26
 114:Core/Src/main.c ****         for (uint8_t j = 0; j < 8; j++) {
 110              		.loc 1 114 17 is_stmt 0 view .LVU27
 111 003c 14F80EC0 		ldrb	ip, [r4, lr]	@ zero_extendqisi2
 112              	.LVL11:
 115:Core/Src/main.c ****             uint8_t mix = (crc ^ b) & 0x01;
 113              		.loc 1 115 9 is_stmt 1 view .LVU28
 114              	.LBB9:
 115:Core/Src/main.c ****             uint8_t mix = (crc ^ b) & 0x01;
 115              		.loc 1 115 14 view .LVU29
 115:Core/Src/main.c ****             uint8_t mix = (crc ^ b) & 0x01;
 116              		.loc 1 115 22 is_stmt 0 view .LVU30
 117 0040 0023     		movs	r3, #0
 115:Core/Src/main.c ****             uint8_t mix = (crc ^ b) & 0x01;
 118              		.loc 1 115 9 view .LVU31
 119 0042 E7E7     		b	.L3
 120              	.LVL12:
 121              	.L9:
 115:Core/Src/main.c ****             uint8_t mix = (crc ^ b) & 0x01;
 122              		.loc 1 115 9 view .LVU32
 123              	.LBE9:
 124              	.LBE10:
 125              	.LBE11:
 120:Core/Src/main.c ****         }
 121:Core/Src/main.c ****     }
 122:Core/Src/main.c ****     return crc;
 126              		.loc 1 122 5 is_stmt 1 view .LVU33
 123:Core/Src/main.c **** }
 127              		.loc 1 123 1 is_stmt 0 view .LVU34
 128 0044 10BD     		pop	{r4, pc}
 129              		.loc 1 123 1 view .LVU35
 130              		.cfi_endproc
 131              	.LFE134:
 133              		.section	.text.rb_push,"ax",%progbits
 134              		.align	1
 135              		.syntax unified
 136              		.thumb
 137              		.thumb_func
 139              	rb_push:
 140              	.LVL13:
 141              	.LFB135:
 124:Core/Src/main.c **** 
ARM GAS  C:\Users\bulli\AppData\Local\Temp\ccgdAJmu.s 			page 6


 125:Core/Src/main.c **** /* Writer — called only from ISR. Drops byte on overflow. */
 126:Core/Src/main.c **** static void rb_push(uint8_t b) {
 142              		.loc 1 126 32 is_stmt 1 view -0
 143              		.cfi_startproc
 144              		@ args = 0, pretend = 0, frame = 0
 145              		@ frame_needed = 0, uses_anonymous_args = 0
 146              		@ link register save eliminated.
 127:Core/Src/main.c ****     uint16_t next = (uint16_t)((rb_head + 1) % RINGBUF_SIZE);
 147              		.loc 1 127 5 view .LVU37
 148              		.loc 1 127 41 is_stmt 0 view .LVU38
 149 0000 0C4B     		ldr	r3, .L12
 150 0002 1B88     		ldrh	r3, [r3]
 151 0004 9BB2     		uxth	r3, r3
 152 0006 0133     		adds	r3, r3, #1
 153              		.loc 1 127 46 view .LVU39
 154 0008 5A42     		rsbs	r2, r3, #0
 155 000a 03F03F03 		and	r3, r3, #63
 156 000e 02F03F02 		and	r2, r2, #63
 157 0012 58BF     		it	pl
 158 0014 5342     		rsbpl	r3, r2, #0
 159              		.loc 1 127 14 view .LVU40
 160 0016 9BB2     		uxth	r3, r3
 161              	.LVL14:
 128:Core/Src/main.c ****     if (next != rb_tail) {
 162              		.loc 1 128 5 is_stmt 1 view .LVU41
 163              		.loc 1 128 14 is_stmt 0 view .LVU42
 164 0018 074A     		ldr	r2, .L12+4
 165 001a 1288     		ldrh	r2, [r2]
 166 001c 92B2     		uxth	r2, r2
 167              		.loc 1 128 8 view .LVU43
 168 001e 9A42     		cmp	r2, r3
 169 0020 07D0     		beq	.L10
 129:Core/Src/main.c ****         rb_buf[rb_head] = b;
 170              		.loc 1 129 9 is_stmt 1 view .LVU44
 171              		.loc 1 129 15 is_stmt 0 view .LVU45
 172 0022 0449     		ldr	r1, .L12
 173 0024 0A88     		ldrh	r2, [r1]
 174 0026 92B2     		uxth	r2, r2
 175              		.loc 1 129 25 view .LVU46
 176 0028 DFF810C0 		ldr	ip, .L12+8
 177 002c 0CF80200 		strb	r0, [ip, r2]
 130:Core/Src/main.c ****         rb_head = next;
 178              		.loc 1 130 9 is_stmt 1 view .LVU47
 179              		.loc 1 130 17 is_stmt 0 view .LVU48
 180 0030 0B80     		strh	r3, [r1]	@ movhi
 181              	.L10:
 131:Core/Src/main.c ****     }
 132:Core/Src/main.c **** }
 182              		.loc 1 132 1 view .LVU49
 183 0032 7047     		bx	lr
 184              	.L13:
 185              		.align	2
 186              	.L12:
 187 0034 00000000 		.word	rb_head
 188 0038 00000000 		.word	rb_tail
 189 003c 00000000 		.word	rb_buf
 190              		.cfi_endproc
ARM GAS  C:\Users\bulli\AppData\Local\Temp\ccgdAJmu.s 			page 7


 191              	.LFE135:
 193              		.section	.text.rb_pop,"ax",%progbits
 194              		.align	1
 195              		.syntax unified
 196              		.thumb
 197              		.thumb_func
 199              	rb_pop:
 200              	.LVL15:
 201              	.LFB136:
 133:Core/Src/main.c **** 
 134:Core/Src/main.c **** /* Reader — called only from main loop. */
 135:Core/Src/main.c **** static int rb_pop(uint8_t *b) {
 202              		.loc 1 135 31 is_stmt 1 view -0
 203              		.cfi_startproc
 204              		@ args = 0, pretend = 0, frame = 0
 205              		@ frame_needed = 0, uses_anonymous_args = 0
 206              		@ link register save eliminated.
 136:Core/Src/main.c ****     if (rb_head == rb_tail) return 0;
 207              		.loc 1 136 5 view .LVU51
 208              		.loc 1 136 17 is_stmt 0 view .LVU52
 209 0000 0E4B     		ldr	r3, .L17
 210 0002 1A88     		ldrh	r2, [r3]
 211 0004 92B2     		uxth	r2, r2
 212 0006 0E4B     		ldr	r3, .L17+4
 213 0008 1B88     		ldrh	r3, [r3]
 214 000a 9BB2     		uxth	r3, r3
 215              		.loc 1 136 8 view .LVU53
 216 000c 9A42     		cmp	r2, r3
 217 000e 13D0     		beq	.L16
 137:Core/Src/main.c ****     *b = rb_buf[rb_tail];
 218              		.loc 1 137 5 is_stmt 1 view .LVU54
 219              		.loc 1 137 16 is_stmt 0 view .LVU55
 220 0010 0B4A     		ldr	r2, .L17+4
 221 0012 1388     		ldrh	r3, [r2]
 222 0014 9BB2     		uxth	r3, r3
 223 0016 0B49     		ldr	r1, .L17+8
 224 0018 CB5C     		ldrb	r3, [r1, r3]	@ zero_extendqisi2
 225              		.loc 1 137 8 view .LVU56
 226 001a 0370     		strb	r3, [r0]
 138:Core/Src/main.c ****     rb_tail = (uint16_t)((rb_tail + 1) % RINGBUF_SIZE);
 227              		.loc 1 138 5 is_stmt 1 view .LVU57
 228              		.loc 1 138 35 is_stmt 0 view .LVU58
 229 001c 1388     		ldrh	r3, [r2]
 230 001e 9BB2     		uxth	r3, r3
 231 0020 0133     		adds	r3, r3, #1
 232              		.loc 1 138 40 view .LVU59
 233 0022 5942     		rsbs	r1, r3, #0
 234 0024 03F03F03 		and	r3, r3, #63
 235 0028 01F03F01 		and	r1, r1, #63
 236 002c 58BF     		it	pl
 237 002e 4B42     		rsbpl	r3, r1, #0
 238              		.loc 1 138 15 view .LVU60
 239 0030 9BB2     		uxth	r3, r3
 240              		.loc 1 138 13 view .LVU61
 241 0032 1380     		strh	r3, [r2]	@ movhi
 139:Core/Src/main.c ****     return 1;
 242              		.loc 1 139 5 is_stmt 1 view .LVU62
ARM GAS  C:\Users\bulli\AppData\Local\Temp\ccgdAJmu.s 			page 8


 243              		.loc 1 139 12 is_stmt 0 view .LVU63
 244 0034 0120     		movs	r0, #1
 245              	.LVL16:
 246              		.loc 1 139 12 view .LVU64
 247 0036 7047     		bx	lr
 248              	.LVL17:
 249              	.L16:
 136:Core/Src/main.c ****     *b = rb_buf[rb_tail];
 250              		.loc 1 136 36 discriminator 1 view .LVU65
 251 0038 0020     		movs	r0, #0
 252              	.LVL18:
 140:Core/Src/main.c **** }
 253              		.loc 1 140 1 view .LVU66
 254 003a 7047     		bx	lr
 255              	.L18:
 256              		.align	2
 257              	.L17:
 258 003c 00000000 		.word	rb_head
 259 0040 00000000 		.word	rb_tail
 260 0044 00000000 		.word	rb_buf
 261              		.cfi_endproc
 262              	.LFE136:
 264              		.section	.text.update_servo_pwm,"ax",%progbits
 265              		.align	1
 266              		.syntax unified
 267              		.thumb
 268              		.thumb_func
 270              	update_servo_pwm:
 271              	.LVL19:
 272              	.LFB138:
 141:Core/Src/main.c **** 
 142:Core/Src/main.c **** /*
 143:Core/Src/main.c ****  * Resynchronizing frame parser.
 144:Core/Src/main.c ****  *
 145:Core/Src/main.c ****  *   PS_SYNC1   : hunt for 0xAA. Anything else is discarded.
 146:Core/Src/main.c ****  *   PS_SYNC2   : saw 0xAA, expect 0x55. If another 0xAA arrives, stay here
 147:Core/Src/main.c ****  *                (it might be the real start). Any other byte -> hunt again.
 148:Core/Src/main.c ****  *   PS_PAYLOAD : collect 9 bytes. When full, verify CRC over the first 8.
 149:Core/Src/main.c ****  *                On success, update rc and mark link_ok. On CRC failure,
 150:Core/Src/main.c ****  *                discard and resync — a spurious 0xAA 0x55 only costs one frame.
 151:Core/Src/main.c ****  */
 152:Core/Src/main.c **** static void parser_feed(uint8_t b) {
 153:Core/Src/main.c ****     switch (pstate) {
 154:Core/Src/main.c ****     case PS_SYNC1:
 155:Core/Src/main.c ****         if (b == SYNC1) pstate = PS_SYNC2;
 156:Core/Src/main.c ****         break;
 157:Core/Src/main.c **** 
 158:Core/Src/main.c ****     case PS_SYNC2:
 159:Core/Src/main.c ****         if (b == SYNC2)      { pstate = PS_PAYLOAD; pidx = 0; }
 160:Core/Src/main.c ****         else if (b != SYNC1) { pstate = PS_SYNC1; }
 161:Core/Src/main.c ****         break;
 162:Core/Src/main.c **** 
 163:Core/Src/main.c ****     case PS_PAYLOAD:
 164:Core/Src/main.c ****         payload[pidx++] = b;
 165:Core/Src/main.c ****         if (pidx == (FRAME_LEN - 2)) {
 166:Core/Src/main.c ****             uint8_t crc_calc = crc8_dallas(payload, 8);
 167:Core/Src/main.c ****             uint8_t crc_rx   = payload[8];
ARM GAS  C:\Users\bulli\AppData\Local\Temp\ccgdAJmu.s 			page 9


 168:Core/Src/main.c ****             if (crc_calc == crc_rx) {
 169:Core/Src/main.c ****                 rc.ch1 = (uint16_t)payload[0] | ((uint16_t)payload[1] << 8);
 170:Core/Src/main.c ****                 rc.ch2 = (uint16_t)payload[2] | ((uint16_t)payload[3] << 8);
 171:Core/Src/main.c ****                 rc.ch3 = (uint16_t)payload[4] | ((uint16_t)payload[5] << 8);
 172:Core/Src/main.c ****                 rc.ch4 = (uint16_t)payload[6] | ((uint16_t)payload[7] << 8);
 173:Core/Src/main.c ****                 rc.last_frame_tick = HAL_GetTick();
 174:Core/Src/main.c ****                 rc.link_ok = 1;
 175:Core/Src/main.c ****                 update_servo_pwm(rc.ch1);  /* update servo position */
 176:Core/Src/main.c ****             }
 177:Core/Src/main.c ****             pstate = PS_SYNC1;
 178:Core/Src/main.c ****         }
 179:Core/Src/main.c ****         break;
 180:Core/Src/main.c ****     }
 181:Core/Src/main.c **** }
 182:Core/Src/main.c **** 
 183:Core/Src/main.c **** /*
 184:Core/Src/main.c ****  * Map CH1 (0..2047) to servo PWM pulse width.
 185:Core/Src/main.c ****  * Observed behavior: 1900µs = extended, 1100µs = retracted
 186:Core/Src/main.c ****  * Desired: CH1 300 (low) = retracted, CH1 1600 (high) = extended
 187:Core/Src/main.c ****  * So: CH1 300 → 1100µs, CH1 1600 → 1900µs
 188:Core/Src/main.c ****  */
 189:Core/Src/main.c **** static void update_servo_pwm(uint16_t ch1_value) {
 273              		.loc 1 189 50 is_stmt 1 view -0
 274              		.cfi_startproc
 275              		@ args = 0, pretend = 0, frame = 0
 276              		@ frame_needed = 0, uses_anonymous_args = 0
 277              		@ link register save eliminated.
 190:Core/Src/main.c ****     extern TIM_HandleTypeDef htim2;  /* will be generated by CubeMX */
 278              		.loc 1 190 5 view .LVU68
 191:Core/Src/main.c **** 
 192:Core/Src/main.c ****     uint32_t pulse_us;
 279              		.loc 1 192 5 view .LVU69
 193:Core/Src/main.c ****     if (ch1_value < 300) {
 280              		.loc 1 193 5 view .LVU70
 281              		.loc 1 193 8 is_stmt 0 view .LVU71
 282 0000 B0F5967F 		cmp	r0, #300
 283 0004 11D3     		bcc	.L21
 194:Core/Src/main.c ****         pulse_us = 1100;  /* clamp low → retracted */
 195:Core/Src/main.c ****     } else if (ch1_value > 1600) {
 284              		.loc 1 195 12 is_stmt 1 view .LVU72
 285              		.loc 1 195 15 is_stmt 0 view .LVU73
 286 0006 B0F5C86F 		cmp	r0, #1600
 287 000a 1CD8     		bhi	.L22
 196:Core/Src/main.c ****         pulse_us = 1900;  /* clamp high → extended */
 197:Core/Src/main.c ****     } else {
 198:Core/Src/main.c ****         /* Linear interpolation: higher ch1 → longer pulse_us */
 199:Core/Src/main.c ****         pulse_us = 1100 + ((ch1_value - 300) * (1900 - 1100)) / (1600 - 300);
 288              		.loc 1 199 9 is_stmt 1 view .LVU74
 289              		.loc 1 199 39 is_stmt 0 view .LVU75
 290 000c A0F59670 		sub	r0, r0, #300
 291              	.LVL20:
 292              		.loc 1 199 46 view .LVU76
 293 0010 4FF44873 		mov	r3, #800
 294 0014 03FB00F0 		mul	r0, r3, r0
 295              	.LVL21:
 296              		.loc 1 199 63 view .LVU77
 297 0018 0C4A     		ldr	r2, .L23
ARM GAS  C:\Users\bulli\AppData\Local\Temp\ccgdAJmu.s 			page 10


 298 001a 82FB0032 		smull	r3, r2, r2, r0
 299 001e C317     		asrs	r3, r0, #31
 300 0020 C3EB6223 		rsb	r3, r3, r2, asr #9
 301              		.loc 1 199 25 view .LVU78
 302 0024 03F24C43 		addw	r3, r3, #1100
 303              	.LVL22:
 304              		.loc 1 199 25 view .LVU79
 305 0028 01E0     		b	.L20
 306              	.LVL23:
 307              	.L21:
 194:Core/Src/main.c ****         pulse_us = 1100;  /* clamp low → retracted */
 308              		.loc 1 194 18 view .LVU80
 309 002a 40F24C43 		movw	r3, #1100
 310              	.LVL24:
 311              	.L20:
 200:Core/Src/main.c ****     }
 201:Core/Src/main.c **** 
 202:Core/Src/main.c ****     /* Convert µs to timer counts: pulse_us * (PWM_MAX_CCR + 1) / PWM_PERIOD_US */
 203:Core/Src/main.c ****     uint32_t ccr = (pulse_us * (PWM_MAX_CCR + 1)) / PWM_PERIOD_US;
 312              		.loc 1 203 5 is_stmt 1 view .LVU81
 313              		.loc 1 203 30 is_stmt 0 view .LVU82
 314 002e 4FF47A72 		mov	r2, #1000
 315 0032 02FB03F3 		mul	r3, r2, r3
 316              	.LVL25:
 317              		.loc 1 203 14 view .LVU83
 318 0036 064A     		ldr	r2, .L23+4
 319 0038 A2FB0323 		umull	r2, r3, r2, r3
 320 003c 9B0B     		lsrs	r3, r3, #14
 321              	.LVL26:
 204:Core/Src/main.c **** 
 205:Core/Src/main.c ****     __HAL_TIM_SET_COMPARE(&htim2, TIM_CHANNEL_1, ccr);
 322              		.loc 1 205 5 is_stmt 1 view .LVU84
 323 003e 054A     		ldr	r2, .L23+8
 324 0040 1268     		ldr	r2, [r2]
 325 0042 5363     		str	r3, [r2, #52]
 206:Core/Src/main.c **** }
 326              		.loc 1 206 1 is_stmt 0 view .LVU85
 327 0044 7047     		bx	lr
 328              	.LVL27:
 329              	.L22:
 196:Core/Src/main.c ****     } else {
 330              		.loc 1 196 18 view .LVU86
 331 0046 40F26C73 		movw	r3, #1900
 332 004a F0E7     		b	.L20
 333              	.L24:
 334              		.align	2
 335              	.L23:
 336 004c FF19D364 		.word	1691556351
 337 0050 5917B7D1 		.word	-776530087
 338 0054 00000000 		.word	htim2
 339              		.cfi_endproc
 340              	.LFE138:
 342              		.section	.text.parser_feed,"ax",%progbits
 343              		.align	1
 344              		.syntax unified
 345              		.thumb
 346              		.thumb_func
ARM GAS  C:\Users\bulli\AppData\Local\Temp\ccgdAJmu.s 			page 11


 348              	parser_feed:
 349              	.LVL28:
 350              	.LFB137:
 152:Core/Src/main.c ****     switch (pstate) {
 351              		.loc 1 152 36 is_stmt 1 view -0
 352              		.cfi_startproc
 353              		@ args = 0, pretend = 0, frame = 0
 354              		@ frame_needed = 0, uses_anonymous_args = 0
 153:Core/Src/main.c ****     case PS_SYNC1:
 355              		.loc 1 153 5 view .LVU88
 356 0000 294B     		ldr	r3, .L38
 357 0002 1B78     		ldrb	r3, [r3]	@ zero_extendqisi2
 358 0004 012B     		cmp	r3, #1
 359 0006 09D0     		beq	.L26
 360 0008 022B     		cmp	r3, #2
 361 000a 16D0     		beq	.L27
 362 000c 0BB9     		cbnz	r3, .L32
 155:Core/Src/main.c ****         break;
 363              		.loc 1 155 9 view .LVU89
 155:Core/Src/main.c ****         break;
 364              		.loc 1 155 12 is_stmt 0 view .LVU90
 365 000e AA28     		cmp	r0, #170
 366 0010 00D0     		beq	.L35
 367              	.L32:
 368 0012 7047     		bx	lr
 369              	.L35:
 155:Core/Src/main.c ****         break;
 370              		.loc 1 155 25 is_stmt 1 discriminator 1 view .LVU91
 155:Core/Src/main.c ****         break;
 371              		.loc 1 155 32 is_stmt 0 discriminator 1 view .LVU92
 372 0014 244B     		ldr	r3, .L38
 373 0016 0122     		movs	r2, #1
 374 0018 1A70     		strb	r2, [r3]
 375 001a 7047     		bx	lr
 376              	.L26:
 159:Core/Src/main.c ****         else if (b != SYNC1) { pstate = PS_SYNC1; }
 377              		.loc 1 159 9 is_stmt 1 view .LVU93
 159:Core/Src/main.c ****         else if (b != SYNC1) { pstate = PS_SYNC1; }
 378              		.loc 1 159 12 is_stmt 0 view .LVU94
 379 001c 5528     		cmp	r0, #85
 380 001e 05D0     		beq	.L36
 160:Core/Src/main.c ****         break;
 381              		.loc 1 160 14 is_stmt 1 view .LVU95
 160:Core/Src/main.c ****         break;
 382              		.loc 1 160 17 is_stmt 0 view .LVU96
 383 0020 AA28     		cmp	r0, #170
 384 0022 F6D0     		beq	.L32
 160:Core/Src/main.c ****         break;
 385              		.loc 1 160 32 is_stmt 1 discriminator 1 view .LVU97
 160:Core/Src/main.c ****         break;
 386              		.loc 1 160 39 is_stmt 0 discriminator 1 view .LVU98
 387 0024 204B     		ldr	r3, .L38
 388 0026 0022     		movs	r2, #0
 389 0028 1A70     		strb	r2, [r3]
 390 002a 7047     		bx	lr
 391              	.L36:
 159:Core/Src/main.c ****         else if (b != SYNC1) { pstate = PS_SYNC1; }
ARM GAS  C:\Users\bulli\AppData\Local\Temp\ccgdAJmu.s 			page 12


 392              		.loc 1 159 32 is_stmt 1 discriminator 1 view .LVU99
 159:Core/Src/main.c ****         else if (b != SYNC1) { pstate = PS_SYNC1; }
 393              		.loc 1 159 39 is_stmt 0 discriminator 1 view .LVU100
 394 002c 1E4B     		ldr	r3, .L38
 395 002e 0222     		movs	r2, #2
 396 0030 1A70     		strb	r2, [r3]
 159:Core/Src/main.c ****         else if (b != SYNC1) { pstate = PS_SYNC1; }
 397              		.loc 1 159 53 is_stmt 1 view .LVU101
 159:Core/Src/main.c ****         else if (b != SYNC1) { pstate = PS_SYNC1; }
 398              		.loc 1 159 58 is_stmt 0 discriminator 1 view .LVU102
 399 0032 1E4B     		ldr	r3, .L38+4
 400 0034 0022     		movs	r2, #0
 401 0036 1A70     		strb	r2, [r3]
 402 0038 7047     		bx	lr
 403              	.L27:
 164:Core/Src/main.c ****         if (pidx == (FRAME_LEN - 2)) {
 404              		.loc 1 164 9 is_stmt 1 view .LVU103
 164:Core/Src/main.c ****         if (pidx == (FRAME_LEN - 2)) {
 405              		.loc 1 164 21 is_stmt 0 view .LVU104
 406 003a 1C49     		ldr	r1, .L38+4
 407 003c 0A78     		ldrb	r2, [r1]	@ zero_extendqisi2
 408 003e 531C     		adds	r3, r2, #1
 409 0040 DBB2     		uxtb	r3, r3
 410 0042 0B70     		strb	r3, [r1]
 164:Core/Src/main.c ****         if (pidx == (FRAME_LEN - 2)) {
 411              		.loc 1 164 25 view .LVU105
 412 0044 1A49     		ldr	r1, .L38+8
 413 0046 8854     		strb	r0, [r1, r2]
 165:Core/Src/main.c ****             uint8_t crc_calc = crc8_dallas(payload, 8);
 414              		.loc 1 165 9 is_stmt 1 view .LVU106
 165:Core/Src/main.c ****             uint8_t crc_calc = crc8_dallas(payload, 8);
 415              		.loc 1 165 12 is_stmt 0 view .LVU107
 416 0048 092B     		cmp	r3, #9
 417 004a E2D1     		bne	.L32
 152:Core/Src/main.c ****     switch (pstate) {
 418              		.loc 1 152 36 view .LVU108
 419 004c 10B5     		push	{r4, lr}
 420              		.cfi_def_cfa_offset 8
 421              		.cfi_offset 4, -8
 422              		.cfi_offset 14, -4
 423              	.LBB12:
 166:Core/Src/main.c ****             uint8_t crc_rx   = payload[8];
 424              		.loc 1 166 13 is_stmt 1 view .LVU109
 166:Core/Src/main.c ****             uint8_t crc_rx   = payload[8];
 425              		.loc 1 166 32 is_stmt 0 view .LVU110
 426 004e 0821     		movs	r1, #8
 427 0050 1748     		ldr	r0, .L38+8
 428              	.LVL29:
 166:Core/Src/main.c ****             uint8_t crc_rx   = payload[8];
 429              		.loc 1 166 32 view .LVU111
 430 0052 FFF7FEFF 		bl	crc8_dallas
 431              	.LVL30:
 167:Core/Src/main.c ****             if (crc_calc == crc_rx) {
 432              		.loc 1 167 13 is_stmt 1 view .LVU112
 167:Core/Src/main.c ****             if (crc_calc == crc_rx) {
 433              		.loc 1 167 21 is_stmt 0 view .LVU113
 434 0056 164B     		ldr	r3, .L38+8
ARM GAS  C:\Users\bulli\AppData\Local\Temp\ccgdAJmu.s 			page 13


 435 0058 1B7A     		ldrb	r3, [r3, #8]	@ zero_extendqisi2
 436              	.LVL31:
 168:Core/Src/main.c ****                 rc.ch1 = (uint16_t)payload[0] | ((uint16_t)payload[1] << 8);
 437              		.loc 1 168 13 is_stmt 1 view .LVU114
 168:Core/Src/main.c ****                 rc.ch1 = (uint16_t)payload[0] | ((uint16_t)payload[1] << 8);
 438              		.loc 1 168 16 is_stmt 0 view .LVU115
 439 005a 9842     		cmp	r0, r3
 440 005c 03D0     		beq	.L37
 441              	.LVL32:
 442              	.L30:
 177:Core/Src/main.c ****         }
 443              		.loc 1 177 13 is_stmt 1 view .LVU116
 177:Core/Src/main.c ****         }
 444              		.loc 1 177 20 is_stmt 0 view .LVU117
 445 005e 124B     		ldr	r3, .L38
 446 0060 0022     		movs	r2, #0
 447 0062 1A70     		strb	r2, [r3]
 448              	.LBE12:
 181:Core/Src/main.c **** 
 449              		.loc 1 181 1 view .LVU118
 450 0064 10BD     		pop	{r4, pc}
 451              	.LVL33:
 452              	.L37:
 453              	.LBB13:
 169:Core/Src/main.c ****                 rc.ch2 = (uint16_t)payload[2] | ((uint16_t)payload[3] << 8);
 454              		.loc 1 169 17 is_stmt 1 view .LVU119
 169:Core/Src/main.c ****                 rc.ch2 = (uint16_t)payload[2] | ((uint16_t)payload[3] << 8);
 455              		.loc 1 169 43 is_stmt 0 view .LVU120
 456 0066 124B     		ldr	r3, .L38+8
 457 0068 1A78     		ldrb	r2, [r3]	@ zero_extendqisi2
 169:Core/Src/main.c ****                 rc.ch2 = (uint16_t)payload[2] | ((uint16_t)payload[3] << 8);
 458              		.loc 1 169 67 view .LVU121
 459 006a 5978     		ldrb	r1, [r3, #1]	@ zero_extendqisi2
 169:Core/Src/main.c ****                 rc.ch2 = (uint16_t)payload[2] | ((uint16_t)payload[3] << 8);
 460              		.loc 1 169 47 view .LVU122
 461 006c 42EA0122 		orr	r2, r2, r1, lsl #8
 169:Core/Src/main.c ****                 rc.ch2 = (uint16_t)payload[2] | ((uint16_t)payload[3] << 8);
 462              		.loc 1 169 24 view .LVU123
 463 0070 1048     		ldr	r0, .L38+12
 464              	.LVL34:
 169:Core/Src/main.c ****                 rc.ch2 = (uint16_t)payload[2] | ((uint16_t)payload[3] << 8);
 465              		.loc 1 169 24 view .LVU124
 466 0072 0280     		strh	r2, [r0]	@ movhi
 170:Core/Src/main.c ****                 rc.ch3 = (uint16_t)payload[4] | ((uint16_t)payload[5] << 8);
 467              		.loc 1 170 17 is_stmt 1 view .LVU125
 170:Core/Src/main.c ****                 rc.ch3 = (uint16_t)payload[4] | ((uint16_t)payload[5] << 8);
 468              		.loc 1 170 43 is_stmt 0 view .LVU126
 469 0074 9A78     		ldrb	r2, [r3, #2]	@ zero_extendqisi2
 170:Core/Src/main.c ****                 rc.ch3 = (uint16_t)payload[4] | ((uint16_t)payload[5] << 8);
 470              		.loc 1 170 67 view .LVU127
 471 0076 D978     		ldrb	r1, [r3, #3]	@ zero_extendqisi2
 170:Core/Src/main.c ****                 rc.ch3 = (uint16_t)payload[4] | ((uint16_t)payload[5] << 8);
 472              		.loc 1 170 47 view .LVU128
 473 0078 42EA0122 		orr	r2, r2, r1, lsl #8
 170:Core/Src/main.c ****                 rc.ch3 = (uint16_t)payload[4] | ((uint16_t)payload[5] << 8);
 474              		.loc 1 170 24 view .LVU129
 475 007c 4280     		strh	r2, [r0, #2]	@ movhi
ARM GAS  C:\Users\bulli\AppData\Local\Temp\ccgdAJmu.s 			page 14


 171:Core/Src/main.c ****                 rc.ch4 = (uint16_t)payload[6] | ((uint16_t)payload[7] << 8);
 476              		.loc 1 171 17 is_stmt 1 view .LVU130
 171:Core/Src/main.c ****                 rc.ch4 = (uint16_t)payload[6] | ((uint16_t)payload[7] << 8);
 477              		.loc 1 171 43 is_stmt 0 view .LVU131
 478 007e 1A79     		ldrb	r2, [r3, #4]	@ zero_extendqisi2
 171:Core/Src/main.c ****                 rc.ch4 = (uint16_t)payload[6] | ((uint16_t)payload[7] << 8);
 479              		.loc 1 171 67 view .LVU132
 480 0080 5979     		ldrb	r1, [r3, #5]	@ zero_extendqisi2
 171:Core/Src/main.c ****                 rc.ch4 = (uint16_t)payload[6] | ((uint16_t)payload[7] << 8);
 481              		.loc 1 171 47 view .LVU133
 482 0082 42EA0122 		orr	r2, r2, r1, lsl #8
 171:Core/Src/main.c ****                 rc.ch4 = (uint16_t)payload[6] | ((uint16_t)payload[7] << 8);
 483              		.loc 1 171 24 view .LVU134
 484 0086 8280     		strh	r2, [r0, #4]	@ movhi
 172:Core/Src/main.c ****                 rc.last_frame_tick = HAL_GetTick();
 485              		.loc 1 172 17 is_stmt 1 view .LVU135
 172:Core/Src/main.c ****                 rc.last_frame_tick = HAL_GetTick();
 486              		.loc 1 172 43 is_stmt 0 view .LVU136
 487 0088 9A79     		ldrb	r2, [r3, #6]	@ zero_extendqisi2
 172:Core/Src/main.c ****                 rc.last_frame_tick = HAL_GetTick();
 488              		.loc 1 172 67 view .LVU137
 489 008a DB79     		ldrb	r3, [r3, #7]	@ zero_extendqisi2
 172:Core/Src/main.c ****                 rc.last_frame_tick = HAL_GetTick();
 490              		.loc 1 172 47 view .LVU138
 491 008c 42EA0323 		orr	r3, r2, r3, lsl #8
 172:Core/Src/main.c ****                 rc.last_frame_tick = HAL_GetTick();
 492              		.loc 1 172 24 view .LVU139
 493 0090 0446     		mov	r4, r0
 494 0092 C380     		strh	r3, [r0, #6]	@ movhi
 173:Core/Src/main.c ****                 rc.link_ok = 1;
 495              		.loc 1 173 17 is_stmt 1 view .LVU140
 173:Core/Src/main.c ****                 rc.link_ok = 1;
 496              		.loc 1 173 38 is_stmt 0 view .LVU141
 497 0094 FFF7FEFF 		bl	HAL_GetTick
 498              	.LVL35:
 173:Core/Src/main.c ****                 rc.link_ok = 1;
 499              		.loc 1 173 36 discriminator 1 view .LVU142
 500 0098 A060     		str	r0, [r4, #8]
 174:Core/Src/main.c ****                 update_servo_pwm(rc.ch1);  /* update servo position */
 501              		.loc 1 174 17 is_stmt 1 view .LVU143
 174:Core/Src/main.c ****                 update_servo_pwm(rc.ch1);  /* update servo position */
 502              		.loc 1 174 28 is_stmt 0 view .LVU144
 503 009a 0123     		movs	r3, #1
 504 009c 2373     		strb	r3, [r4, #12]
 175:Core/Src/main.c ****             }
 505              		.loc 1 175 17 is_stmt 1 view .LVU145
 506 009e 2088     		ldrh	r0, [r4]
 507 00a0 FFF7FEFF 		bl	update_servo_pwm
 508              	.LVL36:
 509 00a4 DBE7     		b	.L30
 510              	.L39:
 511 00a6 00BF     		.align	2
 512              	.L38:
 513 00a8 00000000 		.word	pstate
 514 00ac 00000000 		.word	pidx
 515 00b0 00000000 		.word	payload
 516 00b4 00000000 		.word	rc
ARM GAS  C:\Users\bulli\AppData\Local\Temp\ccgdAJmu.s 			page 15


 517              	.LBE13:
 518              		.cfi_endproc
 519              	.LFE137:
 521              		.section	.text.MX_GPIO_Init,"ax",%progbits
 522              		.align	1
 523              		.syntax unified
 524              		.thumb
 525              		.thumb_func
 527              	MX_GPIO_Init:
 528              	.LFB143:
 207:Core/Src/main.c **** 
 208:Core/Src/main.c **** /* USER CODE END 0 */
 209:Core/Src/main.c **** 
 210:Core/Src/main.c **** /**
 211:Core/Src/main.c ****   * @brief  The application entry point.
 212:Core/Src/main.c ****   * @retval int
 213:Core/Src/main.c ****   */
 214:Core/Src/main.c **** int main(void)
 215:Core/Src/main.c **** {
 216:Core/Src/main.c **** 
 217:Core/Src/main.c ****   /* USER CODE BEGIN 1 */
 218:Core/Src/main.c **** 
 219:Core/Src/main.c ****   /* USER CODE END 1 */
 220:Core/Src/main.c **** 
 221:Core/Src/main.c ****   /* MCU Configuration--------------------------------------------------------*/
 222:Core/Src/main.c **** 
 223:Core/Src/main.c ****   /* Reset of all peripherals, Initializes the Flash interface and the Systick. */
 224:Core/Src/main.c ****   HAL_Init();
 225:Core/Src/main.c **** 
 226:Core/Src/main.c ****   /* USER CODE BEGIN Init */
 227:Core/Src/main.c **** 
 228:Core/Src/main.c ****   /* USER CODE END Init */
 229:Core/Src/main.c **** 
 230:Core/Src/main.c ****   /* Configure the system clock */
 231:Core/Src/main.c ****   SystemClock_Config();
 232:Core/Src/main.c **** 
 233:Core/Src/main.c ****   /* USER CODE BEGIN SysInit */
 234:Core/Src/main.c **** 
 235:Core/Src/main.c ****   /* USER CODE END SysInit */
 236:Core/Src/main.c **** 
 237:Core/Src/main.c ****   /* Initialize all configured peripherals */
 238:Core/Src/main.c ****   MX_GPIO_Init();
 239:Core/Src/main.c ****   MX_USART2_UART_Init();
 240:Core/Src/main.c ****   MX_TIM2_Init();
 241:Core/Src/main.c ****   /* USER CODE BEGIN 2 */
 242:Core/Src/main.c ****   HAL_UART_Receive_IT(&huart2, &rx_byte, 1);
 243:Core/Src/main.c **** 
 244:Core/Src/main.c ****   /* Start PWM on TIM2 CH1 (PA0) */
 245:Core/Src/main.c ****   extern TIM_HandleTypeDef htim2;
 246:Core/Src/main.c ****   HAL_TIM_PWM_Start(&htim2, TIM_CHANNEL_1);
 247:Core/Src/main.c **** 
 248:Core/Src/main.c ****   /* Set initial failsafe position */
 249:Core/Src/main.c ****   update_servo_pwm(FAILSAFE_CENTER);
 250:Core/Src/main.c ****   /* USER CODE END 2 */
 251:Core/Src/main.c **** 
 252:Core/Src/main.c ****   /* Infinite loop */
 253:Core/Src/main.c ****   /* USER CODE BEGIN WHILE */
ARM GAS  C:\Users\bulli\AppData\Local\Temp\ccgdAJmu.s 			page 16


 254:Core/Src/main.c ****   while (1)
 255:Core/Src/main.c ****   {
 256:Core/Src/main.c ****     /* USER CODE END WHILE */
 257:Core/Src/main.c **** 
 258:Core/Src/main.c ****     /* USER CODE BEGIN 3 */
 259:Core/Src/main.c ****     /* Drain ISR bytes into parser */
 260:Core/Src/main.c ****     uint8_t b;
 261:Core/Src/main.c ****     while (rb_pop(&b)) parser_feed(b);
 262:Core/Src/main.c **** 
 263:Core/Src/main.c ****     /* Failsafe timeout */
 264:Core/Src/main.c ****     uint32_t now = HAL_GetTick();
 265:Core/Src/main.c ****     if (rc.link_ok && (now - rc.last_frame_tick) > FAILSAFE_MS) {
 266:Core/Src/main.c ****         rc.link_ok = 0;
 267:Core/Src/main.c ****         rc.ch1 = rc.ch2 = rc.ch3 = rc.ch4 = FAILSAFE_CENTER;
 268:Core/Src/main.c ****         update_servo_pwm(FAILSAFE_CENTER);  /* move to failsafe position */
 269:Core/Src/main.c ****     }
 270:Core/Src/main.c **** 
 271:Core/Src/main.c ****     /* LED: solid on valid link, 2 Hz blink on failsafe */
 272:Core/Src/main.c ****     if (rc.link_ok) {
 273:Core/Src/main.c ****         HAL_GPIO_WritePin(LD2_GPIO_Port, LD2_Pin, GPIO_PIN_SET);
 274:Core/Src/main.c ****     } else {
 275:Core/Src/main.c ****         static uint32_t last_toggle = 0;
 276:Core/Src/main.c ****         if ((now - last_toggle) >= HEARTBEAT_MS) {
 277:Core/Src/main.c ****             HAL_GPIO_TogglePin(LD2_GPIO_Port, LD2_Pin);
 278:Core/Src/main.c ****             last_toggle = now;
 279:Core/Src/main.c ****         }
 280:Core/Src/main.c ****     }
 281:Core/Src/main.c ****   }
 282:Core/Src/main.c ****   /* USER CODE END 3 */
 283:Core/Src/main.c **** }
 284:Core/Src/main.c **** 
 285:Core/Src/main.c **** /**
 286:Core/Src/main.c ****   * @brief System Clock Configuration
 287:Core/Src/main.c ****   * @retval None
 288:Core/Src/main.c ****   */
 289:Core/Src/main.c **** void SystemClock_Config(void)
 290:Core/Src/main.c **** {
 291:Core/Src/main.c ****   RCC_OscInitTypeDef RCC_OscInitStruct = {0};
 292:Core/Src/main.c ****   RCC_ClkInitTypeDef RCC_ClkInitStruct = {0};
 293:Core/Src/main.c **** 
 294:Core/Src/main.c ****   /** Configure the main internal regulator output voltage
 295:Core/Src/main.c ****   */
 296:Core/Src/main.c ****   __HAL_RCC_PWR_CLK_ENABLE();
 297:Core/Src/main.c ****   __HAL_PWR_VOLTAGESCALING_CONFIG(PWR_REGULATOR_VOLTAGE_SCALE2);
 298:Core/Src/main.c **** 
 299:Core/Src/main.c ****   /** Initializes the RCC Oscillators according to the specified parameters
 300:Core/Src/main.c ****   * in the RCC_OscInitTypeDef structure.
 301:Core/Src/main.c ****   */
 302:Core/Src/main.c ****   RCC_OscInitStruct.OscillatorType = RCC_OSCILLATORTYPE_HSE;
 303:Core/Src/main.c ****   RCC_OscInitStruct.HSEState = RCC_HSE_BYPASS;
 304:Core/Src/main.c ****   RCC_OscInitStruct.PLL.PLLState = RCC_PLL_ON;
 305:Core/Src/main.c ****   RCC_OscInitStruct.PLL.PLLSource = RCC_PLLSOURCE_HSE;
 306:Core/Src/main.c ****   RCC_OscInitStruct.PLL.PLLM = 4;
 307:Core/Src/main.c ****   RCC_OscInitStruct.PLL.PLLN = 84;
 308:Core/Src/main.c ****   RCC_OscInitStruct.PLL.PLLP = RCC_PLLP_DIV2;
 309:Core/Src/main.c ****   RCC_OscInitStruct.PLL.PLLQ = 7;
 310:Core/Src/main.c ****   if (HAL_RCC_OscConfig(&RCC_OscInitStruct) != HAL_OK)
ARM GAS  C:\Users\bulli\AppData\Local\Temp\ccgdAJmu.s 			page 17


 311:Core/Src/main.c ****   {
 312:Core/Src/main.c ****     Error_Handler();
 313:Core/Src/main.c ****   }
 314:Core/Src/main.c **** 
 315:Core/Src/main.c ****   /** Initializes the CPU, AHB and APB buses clocks
 316:Core/Src/main.c ****   */
 317:Core/Src/main.c ****   RCC_ClkInitStruct.ClockType = RCC_CLOCKTYPE_HCLK|RCC_CLOCKTYPE_SYSCLK
 318:Core/Src/main.c ****                               |RCC_CLOCKTYPE_PCLK1|RCC_CLOCKTYPE_PCLK2;
 319:Core/Src/main.c ****   RCC_ClkInitStruct.SYSCLKSource = RCC_SYSCLKSOURCE_PLLCLK;
 320:Core/Src/main.c ****   RCC_ClkInitStruct.AHBCLKDivider = RCC_SYSCLK_DIV1;
 321:Core/Src/main.c ****   RCC_ClkInitStruct.APB1CLKDivider = RCC_HCLK_DIV2;
 322:Core/Src/main.c ****   RCC_ClkInitStruct.APB2CLKDivider = RCC_HCLK_DIV1;
 323:Core/Src/main.c **** 
 324:Core/Src/main.c ****   if (HAL_RCC_ClockConfig(&RCC_ClkInitStruct, FLASH_LATENCY_2) != HAL_OK)
 325:Core/Src/main.c ****   {
 326:Core/Src/main.c ****     Error_Handler();
 327:Core/Src/main.c ****   }
 328:Core/Src/main.c **** }
 329:Core/Src/main.c **** 
 330:Core/Src/main.c **** /**
 331:Core/Src/main.c ****   * @brief TIM2 Initialization Function
 332:Core/Src/main.c ****   * @param None
 333:Core/Src/main.c ****   * @retval None
 334:Core/Src/main.c ****   */
 335:Core/Src/main.c **** static void MX_TIM2_Init(void)
 336:Core/Src/main.c **** {
 337:Core/Src/main.c **** 
 338:Core/Src/main.c ****   /* USER CODE BEGIN TIM2_Init 0 */
 339:Core/Src/main.c **** 
 340:Core/Src/main.c ****   /* USER CODE END TIM2_Init 0 */
 341:Core/Src/main.c **** 
 342:Core/Src/main.c ****   TIM_ClockConfigTypeDef sClockSourceConfig = {0};
 343:Core/Src/main.c ****   TIM_MasterConfigTypeDef sMasterConfig = {0};
 344:Core/Src/main.c ****   TIM_OC_InitTypeDef sConfigOC = {0};
 345:Core/Src/main.c **** 
 346:Core/Src/main.c ****   /* USER CODE BEGIN TIM2_Init 1 */
 347:Core/Src/main.c **** 
 348:Core/Src/main.c ****   /* USER CODE END TIM2_Init 1 */
 349:Core/Src/main.c ****   htim2.Instance = TIM2;
 350:Core/Src/main.c ****   htim2.Init.Prescaler = 1679;
 351:Core/Src/main.c ****   htim2.Init.CounterMode = TIM_COUNTERMODE_UP;
 352:Core/Src/main.c ****   htim2.Init.Period = 999;
 353:Core/Src/main.c ****   htim2.Init.ClockDivision = TIM_CLOCKDIVISION_DIV1;
 354:Core/Src/main.c ****   htim2.Init.AutoReloadPreload = TIM_AUTORELOAD_PRELOAD_ENABLE;
 355:Core/Src/main.c ****   if (HAL_TIM_Base_Init(&htim2) != HAL_OK)
 356:Core/Src/main.c ****   {
 357:Core/Src/main.c ****     Error_Handler();
 358:Core/Src/main.c ****   }
 359:Core/Src/main.c ****   sClockSourceConfig.ClockSource = TIM_CLOCKSOURCE_INTERNAL;
 360:Core/Src/main.c ****   if (HAL_TIM_ConfigClockSource(&htim2, &sClockSourceConfig) != HAL_OK)
 361:Core/Src/main.c ****   {
 362:Core/Src/main.c ****     Error_Handler();
 363:Core/Src/main.c ****   }
 364:Core/Src/main.c ****   if (HAL_TIM_PWM_Init(&htim2) != HAL_OK)
 365:Core/Src/main.c ****   {
 366:Core/Src/main.c ****     Error_Handler();
 367:Core/Src/main.c ****   }
ARM GAS  C:\Users\bulli\AppData\Local\Temp\ccgdAJmu.s 			page 18


 368:Core/Src/main.c ****   sMasterConfig.MasterOutputTrigger = TIM_TRGO_RESET;
 369:Core/Src/main.c ****   sMasterConfig.MasterSlaveMode = TIM_MASTERSLAVEMODE_DISABLE;
 370:Core/Src/main.c ****   if (HAL_TIMEx_MasterConfigSynchronization(&htim2, &sMasterConfig) != HAL_OK)
 371:Core/Src/main.c ****   {
 372:Core/Src/main.c ****     Error_Handler();
 373:Core/Src/main.c ****   }
 374:Core/Src/main.c ****   sConfigOC.OCMode = TIM_OCMODE_PWM1;
 375:Core/Src/main.c ****   sConfigOC.Pulse = 75;
 376:Core/Src/main.c ****   sConfigOC.OCPolarity = TIM_OCPOLARITY_HIGH;
 377:Core/Src/main.c ****   sConfigOC.OCFastMode = TIM_OCFAST_DISABLE;
 378:Core/Src/main.c ****   if (HAL_TIM_PWM_ConfigChannel(&htim2, &sConfigOC, TIM_CHANNEL_1) != HAL_OK)
 379:Core/Src/main.c ****   {
 380:Core/Src/main.c ****     Error_Handler();
 381:Core/Src/main.c ****   }
 382:Core/Src/main.c ****   /* USER CODE BEGIN TIM2_Init 2 */
 383:Core/Src/main.c **** 
 384:Core/Src/main.c ****   /* USER CODE END TIM2_Init 2 */
 385:Core/Src/main.c ****   HAL_TIM_MspPostInit(&htim2);
 386:Core/Src/main.c **** 
 387:Core/Src/main.c **** }
 388:Core/Src/main.c **** 
 389:Core/Src/main.c **** /**
 390:Core/Src/main.c ****   * @brief USART2 Initialization Function
 391:Core/Src/main.c ****   * @param None
 392:Core/Src/main.c ****   * @retval None
 393:Core/Src/main.c ****   */
 394:Core/Src/main.c **** static void MX_USART2_UART_Init(void)
 395:Core/Src/main.c **** {
 396:Core/Src/main.c **** 
 397:Core/Src/main.c ****   /* USER CODE BEGIN USART2_Init 0 */
 398:Core/Src/main.c **** 
 399:Core/Src/main.c ****   /* USER CODE END USART2_Init 0 */
 400:Core/Src/main.c **** 
 401:Core/Src/main.c ****   /* USER CODE BEGIN USART2_Init 1 */
 402:Core/Src/main.c **** 
 403:Core/Src/main.c ****   /* USER CODE END USART2_Init 1 */
 404:Core/Src/main.c ****   huart2.Instance = USART2;
 405:Core/Src/main.c ****   huart2.Init.BaudRate = 115200;
 406:Core/Src/main.c ****   huart2.Init.WordLength = UART_WORDLENGTH_8B;
 407:Core/Src/main.c ****   huart2.Init.StopBits = UART_STOPBITS_1;
 408:Core/Src/main.c ****   huart2.Init.Parity = UART_PARITY_NONE;
 409:Core/Src/main.c ****   huart2.Init.Mode = UART_MODE_TX_RX;
 410:Core/Src/main.c ****   huart2.Init.HwFlowCtl = UART_HWCONTROL_NONE;
 411:Core/Src/main.c ****   huart2.Init.OverSampling = UART_OVERSAMPLING_16;
 412:Core/Src/main.c ****   if (HAL_UART_Init(&huart2) != HAL_OK)
 413:Core/Src/main.c ****   {
 414:Core/Src/main.c ****     Error_Handler();
 415:Core/Src/main.c ****   }
 416:Core/Src/main.c ****   /* USER CODE BEGIN USART2_Init 2 */
 417:Core/Src/main.c **** 
 418:Core/Src/main.c ****   /* USER CODE END USART2_Init 2 */
 419:Core/Src/main.c **** 
 420:Core/Src/main.c **** }
 421:Core/Src/main.c **** 
 422:Core/Src/main.c **** /**
 423:Core/Src/main.c ****   * @brief GPIO Initialization Function
 424:Core/Src/main.c ****   * @param None
ARM GAS  C:\Users\bulli\AppData\Local\Temp\ccgdAJmu.s 			page 19


 425:Core/Src/main.c ****   * @retval None
 426:Core/Src/main.c ****   */
 427:Core/Src/main.c **** static void MX_GPIO_Init(void)
 428:Core/Src/main.c **** {
 529              		.loc 1 428 1 view -0
 530              		.cfi_startproc
 531              		@ args = 0, pretend = 0, frame = 40
 532              		@ frame_needed = 0, uses_anonymous_args = 0
 533 0000 70B5     		push	{r4, r5, r6, lr}
 534              		.cfi_def_cfa_offset 16
 535              		.cfi_offset 4, -16
 536              		.cfi_offset 5, -12
 537              		.cfi_offset 6, -8
 538              		.cfi_offset 14, -4
 539 0002 8AB0     		sub	sp, sp, #40
 540              		.cfi_def_cfa_offset 56
 429:Core/Src/main.c ****   GPIO_InitTypeDef GPIO_InitStruct = {0};
 541              		.loc 1 429 3 view .LVU147
 542              		.loc 1 429 20 is_stmt 0 view .LVU148
 543 0004 05AD     		add	r5, sp, #20
 544 0006 0024     		movs	r4, #0
 545 0008 0594     		str	r4, [sp, #20]
 546 000a 0694     		str	r4, [sp, #24]
 547 000c 0794     		str	r4, [sp, #28]
 548 000e 0894     		str	r4, [sp, #32]
 549 0010 0994     		str	r4, [sp, #36]
 430:Core/Src/main.c ****   /* USER CODE BEGIN MX_GPIO_Init_1 */
 431:Core/Src/main.c **** 
 432:Core/Src/main.c ****   /* USER CODE END MX_GPIO_Init_1 */
 433:Core/Src/main.c **** 
 434:Core/Src/main.c ****   /* GPIO Ports Clock Enable */
 435:Core/Src/main.c ****   __HAL_RCC_GPIOC_CLK_ENABLE();
 550              		.loc 1 435 3 is_stmt 1 view .LVU149
 551              	.LBB14:
 552              		.loc 1 435 3 view .LVU150
 553 0012 0194     		str	r4, [sp, #4]
 554              		.loc 1 435 3 view .LVU151
 555 0014 224B     		ldr	r3, .L42
 556 0016 1A6B     		ldr	r2, [r3, #48]
 557 0018 42F00402 		orr	r2, r2, #4
 558 001c 1A63     		str	r2, [r3, #48]
 559              		.loc 1 435 3 view .LVU152
 560 001e 1A6B     		ldr	r2, [r3, #48]
 561 0020 02F00402 		and	r2, r2, #4
 562 0024 0192     		str	r2, [sp, #4]
 563              		.loc 1 435 3 view .LVU153
 564 0026 019A     		ldr	r2, [sp, #4]
 565              	.LBE14:
 566              		.loc 1 435 3 view .LVU154
 436:Core/Src/main.c ****   __HAL_RCC_GPIOH_CLK_ENABLE();
 567              		.loc 1 436 3 view .LVU155
 568              	.LBB15:
 569              		.loc 1 436 3 view .LVU156
 570 0028 0294     		str	r4, [sp, #8]
 571              		.loc 1 436 3 view .LVU157
 572 002a 1A6B     		ldr	r2, [r3, #48]
 573 002c 42F08002 		orr	r2, r2, #128
ARM GAS  C:\Users\bulli\AppData\Local\Temp\ccgdAJmu.s 			page 20


 574 0030 1A63     		str	r2, [r3, #48]
 575              		.loc 1 436 3 view .LVU158
 576 0032 1A6B     		ldr	r2, [r3, #48]
 577 0034 02F08002 		and	r2, r2, #128
 578 0038 0292     		str	r2, [sp, #8]
 579              		.loc 1 436 3 view .LVU159
 580 003a 029A     		ldr	r2, [sp, #8]
 581              	.LBE15:
 582              		.loc 1 436 3 view .LVU160
 437:Core/Src/main.c ****   __HAL_RCC_GPIOA_CLK_ENABLE();
 583              		.loc 1 437 3 view .LVU161
 584              	.LBB16:
 585              		.loc 1 437 3 view .LVU162
 586 003c 0394     		str	r4, [sp, #12]
 587              		.loc 1 437 3 view .LVU163
 588 003e 1A6B     		ldr	r2, [r3, #48]
 589 0040 42F00102 		orr	r2, r2, #1
 590 0044 1A63     		str	r2, [r3, #48]
 591              		.loc 1 437 3 view .LVU164
 592 0046 1A6B     		ldr	r2, [r3, #48]
 593 0048 02F00102 		and	r2, r2, #1
 594 004c 0392     		str	r2, [sp, #12]
 595              		.loc 1 437 3 view .LVU165
 596 004e 039A     		ldr	r2, [sp, #12]
 597              	.LBE16:
 598              		.loc 1 437 3 view .LVU166
 438:Core/Src/main.c ****   __HAL_RCC_GPIOB_CLK_ENABLE();
 599              		.loc 1 438 3 view .LVU167
 600              	.LBB17:
 601              		.loc 1 438 3 view .LVU168
 602 0050 0494     		str	r4, [sp, #16]
 603              		.loc 1 438 3 view .LVU169
 604 0052 1A6B     		ldr	r2, [r3, #48]
 605 0054 42F00202 		orr	r2, r2, #2
 606 0058 1A63     		str	r2, [r3, #48]
 607              		.loc 1 438 3 view .LVU170
 608 005a 1B6B     		ldr	r3, [r3, #48]
 609 005c 03F00203 		and	r3, r3, #2
 610 0060 0493     		str	r3, [sp, #16]
 611              		.loc 1 438 3 view .LVU171
 612 0062 049B     		ldr	r3, [sp, #16]
 613              	.LBE17:
 614              		.loc 1 438 3 view .LVU172
 439:Core/Src/main.c **** 
 440:Core/Src/main.c ****   /*Configure GPIO pin Output Level */
 441:Core/Src/main.c ****   HAL_GPIO_WritePin(LD2_GPIO_Port, LD2_Pin, GPIO_PIN_RESET);
 615              		.loc 1 441 3 view .LVU173
 616 0064 0F4E     		ldr	r6, .L42+4
 617 0066 2246     		mov	r2, r4
 618 0068 2021     		movs	r1, #32
 619 006a 3046     		mov	r0, r6
 620 006c FFF7FEFF 		bl	HAL_GPIO_WritePin
 621              	.LVL37:
 442:Core/Src/main.c **** 
 443:Core/Src/main.c ****   /*Configure GPIO pin : B1_Pin */
 444:Core/Src/main.c ****   GPIO_InitStruct.Pin = B1_Pin;
 622              		.loc 1 444 3 view .LVU174
ARM GAS  C:\Users\bulli\AppData\Local\Temp\ccgdAJmu.s 			page 21


 623              		.loc 1 444 23 is_stmt 0 view .LVU175
 624 0070 4FF40053 		mov	r3, #8192
 625 0074 0593     		str	r3, [sp, #20]
 445:Core/Src/main.c ****   GPIO_InitStruct.Mode = GPIO_MODE_IT_FALLING;
 626              		.loc 1 445 3 is_stmt 1 view .LVU176
 627              		.loc 1 445 24 is_stmt 0 view .LVU177
 628 0076 4FF40413 		mov	r3, #2162688
 629 007a 0693     		str	r3, [sp, #24]
 446:Core/Src/main.c ****   GPIO_InitStruct.Pull = GPIO_NOPULL;
 630              		.loc 1 446 3 is_stmt 1 view .LVU178
 631              		.loc 1 446 24 is_stmt 0 view .LVU179
 632 007c 0794     		str	r4, [sp, #28]
 447:Core/Src/main.c ****   HAL_GPIO_Init(B1_GPIO_Port, &GPIO_InitStruct);
 633              		.loc 1 447 3 is_stmt 1 view .LVU180
 634 007e 2946     		mov	r1, r5
 635 0080 0948     		ldr	r0, .L42+8
 636 0082 FFF7FEFF 		bl	HAL_GPIO_Init
 637              	.LVL38:
 448:Core/Src/main.c **** 
 449:Core/Src/main.c ****   /*Configure GPIO pin : LD2_Pin */
 450:Core/Src/main.c ****   GPIO_InitStruct.Pin = LD2_Pin;
 638              		.loc 1 450 3 view .LVU181
 639              		.loc 1 450 23 is_stmt 0 view .LVU182
 640 0086 2023     		movs	r3, #32
 641 0088 0593     		str	r3, [sp, #20]
 451:Core/Src/main.c ****   GPIO_InitStruct.Mode = GPIO_MODE_OUTPUT_PP;
 642              		.loc 1 451 3 is_stmt 1 view .LVU183
 643              		.loc 1 451 24 is_stmt 0 view .LVU184
 644 008a 0123     		movs	r3, #1
 645 008c 0693     		str	r3, [sp, #24]
 452:Core/Src/main.c ****   GPIO_InitStruct.Pull = GPIO_NOPULL;
 646              		.loc 1 452 3 is_stmt 1 view .LVU185
 647              		.loc 1 452 24 is_stmt 0 view .LVU186
 648 008e 0794     		str	r4, [sp, #28]
 453:Core/Src/main.c ****   GPIO_InitStruct.Speed = GPIO_SPEED_FREQ_LOW;
 649              		.loc 1 453 3 is_stmt 1 view .LVU187
 650              		.loc 1 453 25 is_stmt 0 view .LVU188
 651 0090 0894     		str	r4, [sp, #32]
 454:Core/Src/main.c ****   HAL_GPIO_Init(LD2_GPIO_Port, &GPIO_InitStruct);
 652              		.loc 1 454 3 is_stmt 1 view .LVU189
 653 0092 2946     		mov	r1, r5
 654 0094 3046     		mov	r0, r6
 655 0096 FFF7FEFF 		bl	HAL_GPIO_Init
 656              	.LVL39:
 455:Core/Src/main.c **** 
 456:Core/Src/main.c ****   /* USER CODE BEGIN MX_GPIO_Init_2 */
 457:Core/Src/main.c **** 
 458:Core/Src/main.c ****   /* USER CODE END MX_GPIO_Init_2 */
 459:Core/Src/main.c **** }
 657              		.loc 1 459 1 is_stmt 0 view .LVU190
 658 009a 0AB0     		add	sp, sp, #40
 659              		.cfi_def_cfa_offset 16
 660              		@ sp needed
 661 009c 70BD     		pop	{r4, r5, r6, pc}
 662              	.L43:
 663 009e 00BF     		.align	2
 664              	.L42:
ARM GAS  C:\Users\bulli\AppData\Local\Temp\ccgdAJmu.s 			page 22


 665 00a0 00380240 		.word	1073887232
 666 00a4 00000240 		.word	1073872896
 667 00a8 00080240 		.word	1073874944
 668              		.cfi_endproc
 669              	.LFE143:
 671              		.section	.text.HAL_UART_RxCpltCallback,"ax",%progbits
 672              		.align	1
 673              		.global	HAL_UART_RxCpltCallback
 674              		.syntax unified
 675              		.thumb
 676              		.thumb_func
 678              	HAL_UART_RxCpltCallback:
 679              	.LVL40:
 680              	.LFB144:
 460:Core/Src/main.c **** 
 461:Core/Src/main.c **** /* USER CODE BEGIN 4 */
 462:Core/Src/main.c **** 
 463:Core/Src/main.c **** void HAL_UART_RxCpltCallback(UART_HandleTypeDef *huart) {
 681              		.loc 1 463 57 is_stmt 1 view -0
 682              		.cfi_startproc
 683              		@ args = 0, pretend = 0, frame = 0
 684              		@ frame_needed = 0, uses_anonymous_args = 0
 685              		.loc 1 463 57 is_stmt 0 view .LVU192
 686 0000 08B5     		push	{r3, lr}
 687              		.cfi_def_cfa_offset 8
 688              		.cfi_offset 3, -8
 689              		.cfi_offset 14, -4
 464:Core/Src/main.c ****     if (huart->Instance == USART2) {
 690              		.loc 1 464 5 is_stmt 1 view .LVU193
 691              		.loc 1 464 14 is_stmt 0 view .LVU194
 692 0002 0268     		ldr	r2, [r0]
 693              		.loc 1 464 8 view .LVU195
 694 0004 064B     		ldr	r3, .L48
 695 0006 9A42     		cmp	r2, r3
 696 0008 00D0     		beq	.L47
 697              	.LVL41:
 698              	.L44:
 465:Core/Src/main.c ****         rb_push(rx_byte);
 466:Core/Src/main.c ****         HAL_UART_Receive_IT(&huart2, &rx_byte, 1);   /* re-arm */
 467:Core/Src/main.c ****     }
 468:Core/Src/main.c **** }
 699              		.loc 1 468 1 view .LVU196
 700 000a 08BD     		pop	{r3, pc}
 701              	.LVL42:
 702              	.L47:
 465:Core/Src/main.c ****         rb_push(rx_byte);
 703              		.loc 1 465 9 is_stmt 1 view .LVU197
 704 000c 054B     		ldr	r3, .L48+4
 705 000e 1878     		ldrb	r0, [r3]	@ zero_extendqisi2
 706              	.LVL43:
 465:Core/Src/main.c ****         rb_push(rx_byte);
 707              		.loc 1 465 9 is_stmt 0 view .LVU198
 708 0010 FFF7FEFF 		bl	rb_push
 709              	.LVL44:
 466:Core/Src/main.c ****     }
 710              		.loc 1 466 9 is_stmt 1 view .LVU199
 711 0014 0122     		movs	r2, #1
ARM GAS  C:\Users\bulli\AppData\Local\Temp\ccgdAJmu.s 			page 23


 712 0016 0349     		ldr	r1, .L48+4
 713 0018 0348     		ldr	r0, .L48+8
 714 001a FFF7FEFF 		bl	HAL_UART_Receive_IT
 715              	.LVL45:
 716              		.loc 1 468 1 is_stmt 0 view .LVU200
 717 001e F4E7     		b	.L44
 718              	.L49:
 719              		.align	2
 720              	.L48:
 721 0020 00440040 		.word	1073759232
 722 0024 00000000 		.word	rx_byte
 723 0028 00000000 		.word	huart2
 724              		.cfi_endproc
 725              	.LFE144:
 727              		.section	.text.HAL_UART_ErrorCallback,"ax",%progbits
 728              		.align	1
 729              		.global	HAL_UART_ErrorCallback
 730              		.syntax unified
 731              		.thumb
 732              		.thumb_func
 734              	HAL_UART_ErrorCallback:
 735              	.LVL46:
 736              	.LFB145:
 469:Core/Src/main.c **** 
 470:Core/Src/main.c **** void HAL_UART_ErrorCallback(UART_HandleTypeDef *huart) {
 737              		.loc 1 470 56 is_stmt 1 view -0
 738              		.cfi_startproc
 739              		@ args = 0, pretend = 0, frame = 16
 740              		@ frame_needed = 0, uses_anonymous_args = 0
 471:Core/Src/main.c ****     if (huart->Instance == USART2) {
 741              		.loc 1 471 5 view .LVU202
 742              		.loc 1 471 14 is_stmt 0 view .LVU203
 743 0000 0368     		ldr	r3, [r0]
 744              		.loc 1 471 8 view .LVU204
 745 0002 134A     		ldr	r2, .L57
 746 0004 9342     		cmp	r3, r2
 747 0006 00D0     		beq	.L56
 748 0008 7047     		bx	lr
 749              	.L56:
 470:Core/Src/main.c ****     if (huart->Instance == USART2) {
 750              		.loc 1 470 56 view .LVU205
 751 000a 00B5     		push	{lr}
 752              		.cfi_def_cfa_offset 4
 753              		.cfi_offset 14, -4
 754 000c 85B0     		sub	sp, sp, #20
 755              		.cfi_def_cfa_offset 24
 472:Core/Src/main.c ****         __HAL_UART_CLEAR_OREFLAG(huart);
 756              		.loc 1 472 9 is_stmt 1 view .LVU206
 757              	.LBB18:
 758              		.loc 1 472 9 view .LVU207
 759 000e 0022     		movs	r2, #0
 760 0010 0092     		str	r2, [sp]
 761              		.loc 1 472 9 view .LVU208
 762 0012 1968     		ldr	r1, [r3]
 763 0014 0091     		str	r1, [sp]
 764              		.loc 1 472 9 view .LVU209
 765 0016 5968     		ldr	r1, [r3, #4]
ARM GAS  C:\Users\bulli\AppData\Local\Temp\ccgdAJmu.s 			page 24


 766 0018 0091     		str	r1, [sp]
 767              		.loc 1 472 9 view .LVU210
 768 001a 0099     		ldr	r1, [sp]
 769              	.LBE18:
 770              		.loc 1 472 9 view .LVU211
 473:Core/Src/main.c ****         __HAL_UART_CLEAR_NEFLAG(huart);
 771              		.loc 1 473 9 view .LVU212
 772              	.LBB19:
 773              		.loc 1 473 9 view .LVU213
 774 001c 0192     		str	r2, [sp, #4]
 775              		.loc 1 473 9 view .LVU214
 776 001e 1968     		ldr	r1, [r3]
 777 0020 0191     		str	r1, [sp, #4]
 778              		.loc 1 473 9 view .LVU215
 779 0022 5968     		ldr	r1, [r3, #4]
 780 0024 0191     		str	r1, [sp, #4]
 781              		.loc 1 473 9 view .LVU216
 782 0026 0199     		ldr	r1, [sp, #4]
 783              	.LBE19:
 784              		.loc 1 473 9 view .LVU217
 474:Core/Src/main.c ****         __HAL_UART_CLEAR_FEFLAG(huart);
 785              		.loc 1 474 9 view .LVU218
 786              	.LBB20:
 787              		.loc 1 474 9 view .LVU219
 788 0028 0292     		str	r2, [sp, #8]
 789              		.loc 1 474 9 view .LVU220
 790 002a 1968     		ldr	r1, [r3]
 791 002c 0291     		str	r1, [sp, #8]
 792              		.loc 1 474 9 view .LVU221
 793 002e 5968     		ldr	r1, [r3, #4]
 794 0030 0291     		str	r1, [sp, #8]
 795              		.loc 1 474 9 view .LVU222
 796 0032 0299     		ldr	r1, [sp, #8]
 797              	.LBE20:
 798              		.loc 1 474 9 view .LVU223
 475:Core/Src/main.c ****         __HAL_UART_CLEAR_PEFLAG(huart);
 799              		.loc 1 475 9 view .LVU224
 800              	.LBB21:
 801              		.loc 1 475 9 view .LVU225
 802 0034 0392     		str	r2, [sp, #12]
 803              		.loc 1 475 9 view .LVU226
 804 0036 1A68     		ldr	r2, [r3]
 805 0038 0392     		str	r2, [sp, #12]
 806              		.loc 1 475 9 view .LVU227
 807 003a 5B68     		ldr	r3, [r3, #4]
 808 003c 0393     		str	r3, [sp, #12]
 809              		.loc 1 475 9 view .LVU228
 810 003e 039B     		ldr	r3, [sp, #12]
 811              	.LBE21:
 812              		.loc 1 475 9 view .LVU229
 476:Core/Src/main.c ****         HAL_UART_Receive_IT(&huart2, &rx_byte, 1);   /* re-arm after any error */
 813              		.loc 1 476 9 view .LVU230
 814 0040 0122     		movs	r2, #1
 815 0042 0449     		ldr	r1, .L57+4
 816 0044 0448     		ldr	r0, .L57+8
 817              	.LVL47:
 818              		.loc 1 476 9 is_stmt 0 view .LVU231
ARM GAS  C:\Users\bulli\AppData\Local\Temp\ccgdAJmu.s 			page 25


 819 0046 FFF7FEFF 		bl	HAL_UART_Receive_IT
 820              	.LVL48:
 477:Core/Src/main.c ****     }
 478:Core/Src/main.c **** }
 821              		.loc 1 478 1 view .LVU232
 822 004a 05B0     		add	sp, sp, #20
 823              		.cfi_def_cfa_offset 4
 824              		@ sp needed
 825 004c 00BD     		pop	{pc}
 826              	.L58:
 827 004e 00BF     		.align	2
 828              	.L57:
 829 0050 00440040 		.word	1073759232
 830 0054 00000000 		.word	rx_byte
 831 0058 00000000 		.word	huart2
 832              		.cfi_endproc
 833              	.LFE145:
 835              		.section	.text.Error_Handler,"ax",%progbits
 836              		.align	1
 837              		.global	Error_Handler
 838              		.syntax unified
 839              		.thumb
 840              		.thumb_func
 842              	Error_Handler:
 843              	.LFB146:
 479:Core/Src/main.c **** 
 480:Core/Src/main.c **** /* USER CODE END 4 */
 481:Core/Src/main.c **** 
 482:Core/Src/main.c **** /**
 483:Core/Src/main.c ****   * @brief  This function is executed in case of error occurrence.
 484:Core/Src/main.c ****   * @retval None
 485:Core/Src/main.c ****   */
 486:Core/Src/main.c **** void Error_Handler(void)
 487:Core/Src/main.c **** {
 844              		.loc 1 487 1 is_stmt 1 view -0
 845              		.cfi_startproc
 846              		@ Volatile: function does not return.
 847              		@ args = 0, pretend = 0, frame = 0
 848              		@ frame_needed = 0, uses_anonymous_args = 0
 849              		@ link register save eliminated.
 488:Core/Src/main.c ****   /* USER CODE BEGIN Error_Handler_Debug */
 489:Core/Src/main.c ****   /* User can add his own implementation to report the HAL error return state */
 490:Core/Src/main.c ****   __disable_irq();
 850              		.loc 1 490 3 view .LVU234
 851              	.LBB22:
 852              	.LBI22:
 853              		.file 2 "Drivers/CMSIS/Include/cmsis_gcc.h"
   1:Drivers/CMSIS/Include/cmsis_gcc.h **** /**************************************************************************//**
   2:Drivers/CMSIS/Include/cmsis_gcc.h ****  * @file     cmsis_gcc.h
   3:Drivers/CMSIS/Include/cmsis_gcc.h ****  * @brief    CMSIS compiler GCC header file
   4:Drivers/CMSIS/Include/cmsis_gcc.h ****  * @version  V5.4.1
   5:Drivers/CMSIS/Include/cmsis_gcc.h ****  * @date     27. May 2021
   6:Drivers/CMSIS/Include/cmsis_gcc.h ****  ******************************************************************************/
   7:Drivers/CMSIS/Include/cmsis_gcc.h **** /*
   8:Drivers/CMSIS/Include/cmsis_gcc.h ****  * Copyright (c) 2009-2021 Arm Limited. All rights reserved.
   9:Drivers/CMSIS/Include/cmsis_gcc.h ****  *
  10:Drivers/CMSIS/Include/cmsis_gcc.h ****  * SPDX-License-Identifier: Apache-2.0
ARM GAS  C:\Users\bulli\AppData\Local\Temp\ccgdAJmu.s 			page 26


  11:Drivers/CMSIS/Include/cmsis_gcc.h ****  *
  12:Drivers/CMSIS/Include/cmsis_gcc.h ****  * Licensed under the Apache License, Version 2.0 (the License); you may
  13:Drivers/CMSIS/Include/cmsis_gcc.h ****  * not use this file except in compliance with the License.
  14:Drivers/CMSIS/Include/cmsis_gcc.h ****  * You may obtain a copy of the License at
  15:Drivers/CMSIS/Include/cmsis_gcc.h ****  *
  16:Drivers/CMSIS/Include/cmsis_gcc.h ****  * www.apache.org/licenses/LICENSE-2.0
  17:Drivers/CMSIS/Include/cmsis_gcc.h ****  *
  18:Drivers/CMSIS/Include/cmsis_gcc.h ****  * Unless required by applicable law or agreed to in writing, software
  19:Drivers/CMSIS/Include/cmsis_gcc.h ****  * distributed under the License is distributed on an AS IS BASIS, WITHOUT
  20:Drivers/CMSIS/Include/cmsis_gcc.h ****  * WARRANTIES OR CONDITIONS OF ANY KIND, either express or implied.
  21:Drivers/CMSIS/Include/cmsis_gcc.h ****  * See the License for the specific language governing permissions and
  22:Drivers/CMSIS/Include/cmsis_gcc.h ****  * limitations under the License.
  23:Drivers/CMSIS/Include/cmsis_gcc.h ****  */
  24:Drivers/CMSIS/Include/cmsis_gcc.h **** 
  25:Drivers/CMSIS/Include/cmsis_gcc.h **** #ifndef __CMSIS_GCC_H
  26:Drivers/CMSIS/Include/cmsis_gcc.h **** #define __CMSIS_GCC_H
  27:Drivers/CMSIS/Include/cmsis_gcc.h **** 
  28:Drivers/CMSIS/Include/cmsis_gcc.h **** /* ignore some GCC warnings */
  29:Drivers/CMSIS/Include/cmsis_gcc.h **** #pragma GCC diagnostic push
  30:Drivers/CMSIS/Include/cmsis_gcc.h **** #pragma GCC diagnostic ignored "-Wsign-conversion"
  31:Drivers/CMSIS/Include/cmsis_gcc.h **** #pragma GCC diagnostic ignored "-Wconversion"
  32:Drivers/CMSIS/Include/cmsis_gcc.h **** #pragma GCC diagnostic ignored "-Wunused-parameter"
  33:Drivers/CMSIS/Include/cmsis_gcc.h **** 
  34:Drivers/CMSIS/Include/cmsis_gcc.h **** /* Fallback for __has_builtin */
  35:Drivers/CMSIS/Include/cmsis_gcc.h **** #ifndef __has_builtin
  36:Drivers/CMSIS/Include/cmsis_gcc.h ****   #define __has_builtin(x) (0)
  37:Drivers/CMSIS/Include/cmsis_gcc.h **** #endif
  38:Drivers/CMSIS/Include/cmsis_gcc.h **** 
  39:Drivers/CMSIS/Include/cmsis_gcc.h **** /* CMSIS compiler specific defines */
  40:Drivers/CMSIS/Include/cmsis_gcc.h **** #ifndef   __ASM
  41:Drivers/CMSIS/Include/cmsis_gcc.h ****   #define __ASM                                  __asm
  42:Drivers/CMSIS/Include/cmsis_gcc.h **** #endif
  43:Drivers/CMSIS/Include/cmsis_gcc.h **** #ifndef   __INLINE
  44:Drivers/CMSIS/Include/cmsis_gcc.h ****   #define __INLINE                               inline
  45:Drivers/CMSIS/Include/cmsis_gcc.h **** #endif
  46:Drivers/CMSIS/Include/cmsis_gcc.h **** #ifndef   __STATIC_INLINE
  47:Drivers/CMSIS/Include/cmsis_gcc.h ****   #define __STATIC_INLINE                        static inline
  48:Drivers/CMSIS/Include/cmsis_gcc.h **** #endif
  49:Drivers/CMSIS/Include/cmsis_gcc.h **** #ifndef   __STATIC_FORCEINLINE
  50:Drivers/CMSIS/Include/cmsis_gcc.h ****   #define __STATIC_FORCEINLINE                   __attribute__((always_inline)) static inline
  51:Drivers/CMSIS/Include/cmsis_gcc.h **** #endif
  52:Drivers/CMSIS/Include/cmsis_gcc.h **** #ifndef   __NO_RETURN
  53:Drivers/CMSIS/Include/cmsis_gcc.h ****   #define __NO_RETURN                            __attribute__((__noreturn__))
  54:Drivers/CMSIS/Include/cmsis_gcc.h **** #endif
  55:Drivers/CMSIS/Include/cmsis_gcc.h **** #ifndef   __USED
  56:Drivers/CMSIS/Include/cmsis_gcc.h ****   #define __USED                                 __attribute__((used))
  57:Drivers/CMSIS/Include/cmsis_gcc.h **** #endif
  58:Drivers/CMSIS/Include/cmsis_gcc.h **** #ifndef   __WEAK
  59:Drivers/CMSIS/Include/cmsis_gcc.h ****   #define __WEAK                                 __attribute__((weak))
  60:Drivers/CMSIS/Include/cmsis_gcc.h **** #endif
  61:Drivers/CMSIS/Include/cmsis_gcc.h **** #ifndef   __PACKED
  62:Drivers/CMSIS/Include/cmsis_gcc.h ****   #define __PACKED                               __attribute__((packed, aligned(1)))
  63:Drivers/CMSIS/Include/cmsis_gcc.h **** #endif
  64:Drivers/CMSIS/Include/cmsis_gcc.h **** #ifndef   __PACKED_STRUCT
  65:Drivers/CMSIS/Include/cmsis_gcc.h ****   #define __PACKED_STRUCT                        struct __attribute__((packed, aligned(1)))
  66:Drivers/CMSIS/Include/cmsis_gcc.h **** #endif
  67:Drivers/CMSIS/Include/cmsis_gcc.h **** #ifndef   __PACKED_UNION
ARM GAS  C:\Users\bulli\AppData\Local\Temp\ccgdAJmu.s 			page 27


  68:Drivers/CMSIS/Include/cmsis_gcc.h ****   #define __PACKED_UNION                         union __attribute__((packed, aligned(1)))
  69:Drivers/CMSIS/Include/cmsis_gcc.h **** #endif
  70:Drivers/CMSIS/Include/cmsis_gcc.h **** #ifndef   __UNALIGNED_UINT32        /* deprecated */
  71:Drivers/CMSIS/Include/cmsis_gcc.h ****   #pragma GCC diagnostic push
  72:Drivers/CMSIS/Include/cmsis_gcc.h ****   #pragma GCC diagnostic ignored "-Wpacked"
  73:Drivers/CMSIS/Include/cmsis_gcc.h ****   #pragma GCC diagnostic ignored "-Wattributes"
  74:Drivers/CMSIS/Include/cmsis_gcc.h ****   struct __attribute__((packed)) T_UINT32 { uint32_t v; };
  75:Drivers/CMSIS/Include/cmsis_gcc.h ****   #pragma GCC diagnostic pop
  76:Drivers/CMSIS/Include/cmsis_gcc.h ****   #define __UNALIGNED_UINT32(x)                  (((struct T_UINT32 *)(x))->v)
  77:Drivers/CMSIS/Include/cmsis_gcc.h **** #endif
  78:Drivers/CMSIS/Include/cmsis_gcc.h **** #ifndef   __UNALIGNED_UINT16_WRITE
  79:Drivers/CMSIS/Include/cmsis_gcc.h ****   #pragma GCC diagnostic push
  80:Drivers/CMSIS/Include/cmsis_gcc.h ****   #pragma GCC diagnostic ignored "-Wpacked"
  81:Drivers/CMSIS/Include/cmsis_gcc.h ****   #pragma GCC diagnostic ignored "-Wattributes"
  82:Drivers/CMSIS/Include/cmsis_gcc.h ****   __PACKED_STRUCT T_UINT16_WRITE { uint16_t v; };
  83:Drivers/CMSIS/Include/cmsis_gcc.h ****   #pragma GCC diagnostic pop
  84:Drivers/CMSIS/Include/cmsis_gcc.h ****   #define __UNALIGNED_UINT16_WRITE(addr, val)    (void)((((struct T_UINT16_WRITE *)(void *)(addr))-
  85:Drivers/CMSIS/Include/cmsis_gcc.h **** #endif
  86:Drivers/CMSIS/Include/cmsis_gcc.h **** #ifndef   __UNALIGNED_UINT16_READ
  87:Drivers/CMSIS/Include/cmsis_gcc.h ****   #pragma GCC diagnostic push
  88:Drivers/CMSIS/Include/cmsis_gcc.h ****   #pragma GCC diagnostic ignored "-Wpacked"
  89:Drivers/CMSIS/Include/cmsis_gcc.h ****   #pragma GCC diagnostic ignored "-Wattributes"
  90:Drivers/CMSIS/Include/cmsis_gcc.h ****   __PACKED_STRUCT T_UINT16_READ { uint16_t v; };
  91:Drivers/CMSIS/Include/cmsis_gcc.h ****   #pragma GCC diagnostic pop
  92:Drivers/CMSIS/Include/cmsis_gcc.h ****   #define __UNALIGNED_UINT16_READ(addr)          (((const struct T_UINT16_READ *)(const void *)(add
  93:Drivers/CMSIS/Include/cmsis_gcc.h **** #endif
  94:Drivers/CMSIS/Include/cmsis_gcc.h **** #ifndef   __UNALIGNED_UINT32_WRITE
  95:Drivers/CMSIS/Include/cmsis_gcc.h ****   #pragma GCC diagnostic push
  96:Drivers/CMSIS/Include/cmsis_gcc.h ****   #pragma GCC diagnostic ignored "-Wpacked"
  97:Drivers/CMSIS/Include/cmsis_gcc.h ****   #pragma GCC diagnostic ignored "-Wattributes"
  98:Drivers/CMSIS/Include/cmsis_gcc.h ****   __PACKED_STRUCT T_UINT32_WRITE { uint32_t v; };
  99:Drivers/CMSIS/Include/cmsis_gcc.h ****   #pragma GCC diagnostic pop
 100:Drivers/CMSIS/Include/cmsis_gcc.h ****   #define __UNALIGNED_UINT32_WRITE(addr, val)    (void)((((struct T_UINT32_WRITE *)(void *)(addr))-
 101:Drivers/CMSIS/Include/cmsis_gcc.h **** #endif
 102:Drivers/CMSIS/Include/cmsis_gcc.h **** #ifndef   __UNALIGNED_UINT32_READ
 103:Drivers/CMSIS/Include/cmsis_gcc.h ****   #pragma GCC diagnostic push
 104:Drivers/CMSIS/Include/cmsis_gcc.h ****   #pragma GCC diagnostic ignored "-Wpacked"
 105:Drivers/CMSIS/Include/cmsis_gcc.h ****   #pragma GCC diagnostic ignored "-Wattributes"
 106:Drivers/CMSIS/Include/cmsis_gcc.h ****   __PACKED_STRUCT T_UINT32_READ { uint32_t v; };
 107:Drivers/CMSIS/Include/cmsis_gcc.h ****   #pragma GCC diagnostic pop
 108:Drivers/CMSIS/Include/cmsis_gcc.h ****   #define __UNALIGNED_UINT32_READ(addr)          (((const struct T_UINT32_READ *)(const void *)(add
 109:Drivers/CMSIS/Include/cmsis_gcc.h **** #endif
 110:Drivers/CMSIS/Include/cmsis_gcc.h **** #ifndef   __ALIGNED
 111:Drivers/CMSIS/Include/cmsis_gcc.h ****   #define __ALIGNED(x)                           __attribute__((aligned(x)))
 112:Drivers/CMSIS/Include/cmsis_gcc.h **** #endif
 113:Drivers/CMSIS/Include/cmsis_gcc.h **** #ifndef   __RESTRICT
 114:Drivers/CMSIS/Include/cmsis_gcc.h ****   #define __RESTRICT                             __restrict
 115:Drivers/CMSIS/Include/cmsis_gcc.h **** #endif
 116:Drivers/CMSIS/Include/cmsis_gcc.h **** #ifndef   __COMPILER_BARRIER
 117:Drivers/CMSIS/Include/cmsis_gcc.h ****   #define __COMPILER_BARRIER()                   __ASM volatile("":::"memory")
 118:Drivers/CMSIS/Include/cmsis_gcc.h **** #endif
 119:Drivers/CMSIS/Include/cmsis_gcc.h **** 
 120:Drivers/CMSIS/Include/cmsis_gcc.h **** /* #########################  Startup and Lowlevel Init  ######################## */
 121:Drivers/CMSIS/Include/cmsis_gcc.h **** 
 122:Drivers/CMSIS/Include/cmsis_gcc.h **** #ifndef __PROGRAM_START
 123:Drivers/CMSIS/Include/cmsis_gcc.h **** 
 124:Drivers/CMSIS/Include/cmsis_gcc.h **** /**
ARM GAS  C:\Users\bulli\AppData\Local\Temp\ccgdAJmu.s 			page 28


 125:Drivers/CMSIS/Include/cmsis_gcc.h ****   \brief   Initializes data and bss sections
 126:Drivers/CMSIS/Include/cmsis_gcc.h ****   \details This default implementations initialized all data and additional bss
 127:Drivers/CMSIS/Include/cmsis_gcc.h ****            sections relying on .copy.table and .zero.table specified properly
 128:Drivers/CMSIS/Include/cmsis_gcc.h ****            in the used linker script.
 129:Drivers/CMSIS/Include/cmsis_gcc.h **** 
 130:Drivers/CMSIS/Include/cmsis_gcc.h ****  */
 131:Drivers/CMSIS/Include/cmsis_gcc.h **** __STATIC_FORCEINLINE __NO_RETURN void __cmsis_start(void)
 132:Drivers/CMSIS/Include/cmsis_gcc.h **** {
 133:Drivers/CMSIS/Include/cmsis_gcc.h ****   extern void _start(void) __NO_RETURN;
 134:Drivers/CMSIS/Include/cmsis_gcc.h **** 
 135:Drivers/CMSIS/Include/cmsis_gcc.h ****   typedef struct {
 136:Drivers/CMSIS/Include/cmsis_gcc.h ****     uint32_t const* src;
 137:Drivers/CMSIS/Include/cmsis_gcc.h ****     uint32_t* dest;
 138:Drivers/CMSIS/Include/cmsis_gcc.h ****     uint32_t  wlen;
 139:Drivers/CMSIS/Include/cmsis_gcc.h ****   } __copy_table_t;
 140:Drivers/CMSIS/Include/cmsis_gcc.h **** 
 141:Drivers/CMSIS/Include/cmsis_gcc.h ****   typedef struct {
 142:Drivers/CMSIS/Include/cmsis_gcc.h ****     uint32_t* dest;
 143:Drivers/CMSIS/Include/cmsis_gcc.h ****     uint32_t  wlen;
 144:Drivers/CMSIS/Include/cmsis_gcc.h ****   } __zero_table_t;
 145:Drivers/CMSIS/Include/cmsis_gcc.h **** 
 146:Drivers/CMSIS/Include/cmsis_gcc.h ****   extern const __copy_table_t __copy_table_start__;
 147:Drivers/CMSIS/Include/cmsis_gcc.h ****   extern const __copy_table_t __copy_table_end__;
 148:Drivers/CMSIS/Include/cmsis_gcc.h ****   extern const __zero_table_t __zero_table_start__;
 149:Drivers/CMSIS/Include/cmsis_gcc.h ****   extern const __zero_table_t __zero_table_end__;
 150:Drivers/CMSIS/Include/cmsis_gcc.h **** 
 151:Drivers/CMSIS/Include/cmsis_gcc.h ****   for (__copy_table_t const* pTable = &__copy_table_start__; pTable < &__copy_table_end__; ++pTable
 152:Drivers/CMSIS/Include/cmsis_gcc.h ****     for(uint32_t i=0u; i<pTable->wlen; ++i) {
 153:Drivers/CMSIS/Include/cmsis_gcc.h ****       pTable->dest[i] = pTable->src[i];
 154:Drivers/CMSIS/Include/cmsis_gcc.h ****     }
 155:Drivers/CMSIS/Include/cmsis_gcc.h ****   }
 156:Drivers/CMSIS/Include/cmsis_gcc.h **** 
 157:Drivers/CMSIS/Include/cmsis_gcc.h ****   for (__zero_table_t const* pTable = &__zero_table_start__; pTable < &__zero_table_end__; ++pTable
 158:Drivers/CMSIS/Include/cmsis_gcc.h ****     for(uint32_t i=0u; i<pTable->wlen; ++i) {
 159:Drivers/CMSIS/Include/cmsis_gcc.h ****       pTable->dest[i] = 0u;
 160:Drivers/CMSIS/Include/cmsis_gcc.h ****     }
 161:Drivers/CMSIS/Include/cmsis_gcc.h ****   }
 162:Drivers/CMSIS/Include/cmsis_gcc.h **** 
 163:Drivers/CMSIS/Include/cmsis_gcc.h ****   _start();
 164:Drivers/CMSIS/Include/cmsis_gcc.h **** }
 165:Drivers/CMSIS/Include/cmsis_gcc.h **** 
 166:Drivers/CMSIS/Include/cmsis_gcc.h **** #define __PROGRAM_START           __cmsis_start
 167:Drivers/CMSIS/Include/cmsis_gcc.h **** #endif
 168:Drivers/CMSIS/Include/cmsis_gcc.h **** 
 169:Drivers/CMSIS/Include/cmsis_gcc.h **** #ifndef __INITIAL_SP
 170:Drivers/CMSIS/Include/cmsis_gcc.h **** #define __INITIAL_SP              __StackTop
 171:Drivers/CMSIS/Include/cmsis_gcc.h **** #endif
 172:Drivers/CMSIS/Include/cmsis_gcc.h **** 
 173:Drivers/CMSIS/Include/cmsis_gcc.h **** #ifndef __STACK_LIMIT
 174:Drivers/CMSIS/Include/cmsis_gcc.h **** #define __STACK_LIMIT             __StackLimit
 175:Drivers/CMSIS/Include/cmsis_gcc.h **** #endif
 176:Drivers/CMSIS/Include/cmsis_gcc.h **** 
 177:Drivers/CMSIS/Include/cmsis_gcc.h **** #ifndef __VECTOR_TABLE
 178:Drivers/CMSIS/Include/cmsis_gcc.h **** #define __VECTOR_TABLE            __Vectors
 179:Drivers/CMSIS/Include/cmsis_gcc.h **** #endif
 180:Drivers/CMSIS/Include/cmsis_gcc.h **** 
 181:Drivers/CMSIS/Include/cmsis_gcc.h **** #ifndef __VECTOR_TABLE_ATTRIBUTE
ARM GAS  C:\Users\bulli\AppData\Local\Temp\ccgdAJmu.s 			page 29


 182:Drivers/CMSIS/Include/cmsis_gcc.h **** #define __VECTOR_TABLE_ATTRIBUTE  __attribute__((used, section(".vectors")))
 183:Drivers/CMSIS/Include/cmsis_gcc.h **** #endif
 184:Drivers/CMSIS/Include/cmsis_gcc.h **** 
 185:Drivers/CMSIS/Include/cmsis_gcc.h **** #if defined (__ARM_FEATURE_CMSE) && (__ARM_FEATURE_CMSE == 3U)
 186:Drivers/CMSIS/Include/cmsis_gcc.h **** #ifndef __STACK_SEAL
 187:Drivers/CMSIS/Include/cmsis_gcc.h **** #define __STACK_SEAL              __StackSeal
 188:Drivers/CMSIS/Include/cmsis_gcc.h **** #endif
 189:Drivers/CMSIS/Include/cmsis_gcc.h **** 
 190:Drivers/CMSIS/Include/cmsis_gcc.h **** #ifndef __TZ_STACK_SEAL_SIZE
 191:Drivers/CMSIS/Include/cmsis_gcc.h **** #define __TZ_STACK_SEAL_SIZE      8U
 192:Drivers/CMSIS/Include/cmsis_gcc.h **** #endif
 193:Drivers/CMSIS/Include/cmsis_gcc.h **** 
 194:Drivers/CMSIS/Include/cmsis_gcc.h **** #ifndef __TZ_STACK_SEAL_VALUE
 195:Drivers/CMSIS/Include/cmsis_gcc.h **** #define __TZ_STACK_SEAL_VALUE     0xFEF5EDA5FEF5EDA5ULL
 196:Drivers/CMSIS/Include/cmsis_gcc.h **** #endif
 197:Drivers/CMSIS/Include/cmsis_gcc.h **** 
 198:Drivers/CMSIS/Include/cmsis_gcc.h **** 
 199:Drivers/CMSIS/Include/cmsis_gcc.h **** __STATIC_FORCEINLINE void __TZ_set_STACKSEAL_S (uint32_t* stackTop) {
 200:Drivers/CMSIS/Include/cmsis_gcc.h ****   *((uint64_t *)stackTop) = __TZ_STACK_SEAL_VALUE;
 201:Drivers/CMSIS/Include/cmsis_gcc.h **** }
 202:Drivers/CMSIS/Include/cmsis_gcc.h **** #endif
 203:Drivers/CMSIS/Include/cmsis_gcc.h **** 
 204:Drivers/CMSIS/Include/cmsis_gcc.h **** 
 205:Drivers/CMSIS/Include/cmsis_gcc.h **** /* ##########################  Core Instruction Access  ######################### */
 206:Drivers/CMSIS/Include/cmsis_gcc.h **** /** \defgroup CMSIS_Core_InstructionInterface CMSIS Core Instruction Interface
 207:Drivers/CMSIS/Include/cmsis_gcc.h ****   Access to dedicated instructions
 208:Drivers/CMSIS/Include/cmsis_gcc.h ****   @{
 209:Drivers/CMSIS/Include/cmsis_gcc.h **** */
 210:Drivers/CMSIS/Include/cmsis_gcc.h **** 
 211:Drivers/CMSIS/Include/cmsis_gcc.h **** /* Define macros for porting to both thumb1 and thumb2.
 212:Drivers/CMSIS/Include/cmsis_gcc.h ****  * For thumb1, use low register (r0-r7), specified by constraint "l"
 213:Drivers/CMSIS/Include/cmsis_gcc.h ****  * Otherwise, use general registers, specified by constraint "r" */
 214:Drivers/CMSIS/Include/cmsis_gcc.h **** #if defined (__thumb__) && !defined (__thumb2__)
 215:Drivers/CMSIS/Include/cmsis_gcc.h **** #define __CMSIS_GCC_OUT_REG(r) "=l" (r)
 216:Drivers/CMSIS/Include/cmsis_gcc.h **** #define __CMSIS_GCC_RW_REG(r) "+l" (r)
 217:Drivers/CMSIS/Include/cmsis_gcc.h **** #define __CMSIS_GCC_USE_REG(r) "l" (r)
 218:Drivers/CMSIS/Include/cmsis_gcc.h **** #else
 219:Drivers/CMSIS/Include/cmsis_gcc.h **** #define __CMSIS_GCC_OUT_REG(r) "=r" (r)
 220:Drivers/CMSIS/Include/cmsis_gcc.h **** #define __CMSIS_GCC_RW_REG(r) "+r" (r)
 221:Drivers/CMSIS/Include/cmsis_gcc.h **** #define __CMSIS_GCC_USE_REG(r) "r" (r)
 222:Drivers/CMSIS/Include/cmsis_gcc.h **** #endif
 223:Drivers/CMSIS/Include/cmsis_gcc.h **** 
 224:Drivers/CMSIS/Include/cmsis_gcc.h **** /**
 225:Drivers/CMSIS/Include/cmsis_gcc.h ****   \brief   No Operation
 226:Drivers/CMSIS/Include/cmsis_gcc.h ****   \details No Operation does nothing. This instruction can be used for code alignment purposes.
 227:Drivers/CMSIS/Include/cmsis_gcc.h ****  */
 228:Drivers/CMSIS/Include/cmsis_gcc.h **** #define __NOP()                             __ASM volatile ("nop")
 229:Drivers/CMSIS/Include/cmsis_gcc.h **** 
 230:Drivers/CMSIS/Include/cmsis_gcc.h **** /**
 231:Drivers/CMSIS/Include/cmsis_gcc.h ****   \brief   Wait For Interrupt
 232:Drivers/CMSIS/Include/cmsis_gcc.h ****   \details Wait For Interrupt is a hint instruction that suspends execution until one of a number o
 233:Drivers/CMSIS/Include/cmsis_gcc.h ****  */
 234:Drivers/CMSIS/Include/cmsis_gcc.h **** #define __WFI()                             __ASM volatile ("wfi":::"memory")
 235:Drivers/CMSIS/Include/cmsis_gcc.h **** 
 236:Drivers/CMSIS/Include/cmsis_gcc.h **** 
 237:Drivers/CMSIS/Include/cmsis_gcc.h **** /**
 238:Drivers/CMSIS/Include/cmsis_gcc.h ****   \brief   Wait For Event
ARM GAS  C:\Users\bulli\AppData\Local\Temp\ccgdAJmu.s 			page 30


 239:Drivers/CMSIS/Include/cmsis_gcc.h ****   \details Wait For Event is a hint instruction that permits the processor to enter
 240:Drivers/CMSIS/Include/cmsis_gcc.h ****            a low-power state until one of a number of events occurs.
 241:Drivers/CMSIS/Include/cmsis_gcc.h ****  */
 242:Drivers/CMSIS/Include/cmsis_gcc.h **** #define __WFE()                             __ASM volatile ("wfe":::"memory")
 243:Drivers/CMSIS/Include/cmsis_gcc.h **** 
 244:Drivers/CMSIS/Include/cmsis_gcc.h **** 
 245:Drivers/CMSIS/Include/cmsis_gcc.h **** /**
 246:Drivers/CMSIS/Include/cmsis_gcc.h ****   \brief   Send Event
 247:Drivers/CMSIS/Include/cmsis_gcc.h ****   \details Send Event is a hint instruction. It causes an event to be signaled to the CPU.
 248:Drivers/CMSIS/Include/cmsis_gcc.h ****  */
 249:Drivers/CMSIS/Include/cmsis_gcc.h **** #define __SEV()                             __ASM volatile ("sev")
 250:Drivers/CMSIS/Include/cmsis_gcc.h **** 
 251:Drivers/CMSIS/Include/cmsis_gcc.h **** 
 252:Drivers/CMSIS/Include/cmsis_gcc.h **** /**
 253:Drivers/CMSIS/Include/cmsis_gcc.h ****   \brief   Instruction Synchronization Barrier
 254:Drivers/CMSIS/Include/cmsis_gcc.h ****   \details Instruction Synchronization Barrier flushes the pipeline in the processor,
 255:Drivers/CMSIS/Include/cmsis_gcc.h ****            so that all instructions following the ISB are fetched from cache or memory,
 256:Drivers/CMSIS/Include/cmsis_gcc.h ****            after the instruction has been completed.
 257:Drivers/CMSIS/Include/cmsis_gcc.h ****  */
 258:Drivers/CMSIS/Include/cmsis_gcc.h **** __STATIC_FORCEINLINE void __ISB(void)
 259:Drivers/CMSIS/Include/cmsis_gcc.h **** {
 260:Drivers/CMSIS/Include/cmsis_gcc.h ****   __ASM volatile ("isb 0xF":::"memory");
 261:Drivers/CMSIS/Include/cmsis_gcc.h **** }
 262:Drivers/CMSIS/Include/cmsis_gcc.h **** 
 263:Drivers/CMSIS/Include/cmsis_gcc.h **** 
 264:Drivers/CMSIS/Include/cmsis_gcc.h **** /**
 265:Drivers/CMSIS/Include/cmsis_gcc.h ****   \brief   Data Synchronization Barrier
 266:Drivers/CMSIS/Include/cmsis_gcc.h ****   \details Acts as a special kind of Data Memory Barrier.
 267:Drivers/CMSIS/Include/cmsis_gcc.h ****            It completes when all explicit memory accesses before this instruction complete.
 268:Drivers/CMSIS/Include/cmsis_gcc.h ****  */
 269:Drivers/CMSIS/Include/cmsis_gcc.h **** __STATIC_FORCEINLINE void __DSB(void)
 270:Drivers/CMSIS/Include/cmsis_gcc.h **** {
 271:Drivers/CMSIS/Include/cmsis_gcc.h ****   __ASM volatile ("dsb 0xF":::"memory");
 272:Drivers/CMSIS/Include/cmsis_gcc.h **** }
 273:Drivers/CMSIS/Include/cmsis_gcc.h **** 
 274:Drivers/CMSIS/Include/cmsis_gcc.h **** 
 275:Drivers/CMSIS/Include/cmsis_gcc.h **** /**
 276:Drivers/CMSIS/Include/cmsis_gcc.h ****   \brief   Data Memory Barrier
 277:Drivers/CMSIS/Include/cmsis_gcc.h ****   \details Ensures the apparent order of the explicit memory operations before
 278:Drivers/CMSIS/Include/cmsis_gcc.h ****            and after the instruction, without ensuring their completion.
 279:Drivers/CMSIS/Include/cmsis_gcc.h ****  */
 280:Drivers/CMSIS/Include/cmsis_gcc.h **** __STATIC_FORCEINLINE void __DMB(void)
 281:Drivers/CMSIS/Include/cmsis_gcc.h **** {
 282:Drivers/CMSIS/Include/cmsis_gcc.h ****   __ASM volatile ("dmb 0xF":::"memory");
 283:Drivers/CMSIS/Include/cmsis_gcc.h **** }
 284:Drivers/CMSIS/Include/cmsis_gcc.h **** 
 285:Drivers/CMSIS/Include/cmsis_gcc.h **** 
 286:Drivers/CMSIS/Include/cmsis_gcc.h **** /**
 287:Drivers/CMSIS/Include/cmsis_gcc.h ****   \brief   Reverse byte order (32 bit)
 288:Drivers/CMSIS/Include/cmsis_gcc.h ****   \details Reverses the byte order in unsigned integer value. For example, 0x12345678 becomes 0x785
 289:Drivers/CMSIS/Include/cmsis_gcc.h ****   \param [in]    value  Value to reverse
 290:Drivers/CMSIS/Include/cmsis_gcc.h ****   \return               Reversed value
 291:Drivers/CMSIS/Include/cmsis_gcc.h ****  */
 292:Drivers/CMSIS/Include/cmsis_gcc.h **** __STATIC_FORCEINLINE uint32_t __REV(uint32_t value)
 293:Drivers/CMSIS/Include/cmsis_gcc.h **** {
 294:Drivers/CMSIS/Include/cmsis_gcc.h **** #if (__GNUC__ > 4) || (__GNUC__ == 4 && __GNUC_MINOR__ >= 5)
 295:Drivers/CMSIS/Include/cmsis_gcc.h ****   return __builtin_bswap32(value);
ARM GAS  C:\Users\bulli\AppData\Local\Temp\ccgdAJmu.s 			page 31


 296:Drivers/CMSIS/Include/cmsis_gcc.h **** #else
 297:Drivers/CMSIS/Include/cmsis_gcc.h ****   uint32_t result;
 298:Drivers/CMSIS/Include/cmsis_gcc.h **** 
 299:Drivers/CMSIS/Include/cmsis_gcc.h ****   __ASM ("rev %0, %1" : __CMSIS_GCC_OUT_REG (result) : __CMSIS_GCC_USE_REG (value) );
 300:Drivers/CMSIS/Include/cmsis_gcc.h ****   return result;
 301:Drivers/CMSIS/Include/cmsis_gcc.h **** #endif
 302:Drivers/CMSIS/Include/cmsis_gcc.h **** }
 303:Drivers/CMSIS/Include/cmsis_gcc.h **** 
 304:Drivers/CMSIS/Include/cmsis_gcc.h **** 
 305:Drivers/CMSIS/Include/cmsis_gcc.h **** /**
 306:Drivers/CMSIS/Include/cmsis_gcc.h ****   \brief   Reverse byte order (16 bit)
 307:Drivers/CMSIS/Include/cmsis_gcc.h ****   \details Reverses the byte order within each halfword of a word. For example, 0x12345678 becomes 
 308:Drivers/CMSIS/Include/cmsis_gcc.h ****   \param [in]    value  Value to reverse
 309:Drivers/CMSIS/Include/cmsis_gcc.h ****   \return               Reversed value
 310:Drivers/CMSIS/Include/cmsis_gcc.h ****  */
 311:Drivers/CMSIS/Include/cmsis_gcc.h **** __STATIC_FORCEINLINE uint32_t __REV16(uint32_t value)
 312:Drivers/CMSIS/Include/cmsis_gcc.h **** {
 313:Drivers/CMSIS/Include/cmsis_gcc.h ****   uint32_t result;
 314:Drivers/CMSIS/Include/cmsis_gcc.h **** 
 315:Drivers/CMSIS/Include/cmsis_gcc.h ****   __ASM ("rev16 %0, %1" : __CMSIS_GCC_OUT_REG (result) : __CMSIS_GCC_USE_REG (value) );
 316:Drivers/CMSIS/Include/cmsis_gcc.h ****   return result;
 317:Drivers/CMSIS/Include/cmsis_gcc.h **** }
 318:Drivers/CMSIS/Include/cmsis_gcc.h **** 
 319:Drivers/CMSIS/Include/cmsis_gcc.h **** 
 320:Drivers/CMSIS/Include/cmsis_gcc.h **** /**
 321:Drivers/CMSIS/Include/cmsis_gcc.h ****   \brief   Reverse byte order (16 bit)
 322:Drivers/CMSIS/Include/cmsis_gcc.h ****   \details Reverses the byte order in a 16-bit value and returns the signed 16-bit result. For exam
 323:Drivers/CMSIS/Include/cmsis_gcc.h ****   \param [in]    value  Value to reverse
 324:Drivers/CMSIS/Include/cmsis_gcc.h ****   \return               Reversed value
 325:Drivers/CMSIS/Include/cmsis_gcc.h ****  */
 326:Drivers/CMSIS/Include/cmsis_gcc.h **** __STATIC_FORCEINLINE int16_t __REVSH(int16_t value)
 327:Drivers/CMSIS/Include/cmsis_gcc.h **** {
 328:Drivers/CMSIS/Include/cmsis_gcc.h **** #if (__GNUC__ > 4) || (__GNUC__ == 4 && __GNUC_MINOR__ >= 8)
 329:Drivers/CMSIS/Include/cmsis_gcc.h ****   return (int16_t)__builtin_bswap16(value);
 330:Drivers/CMSIS/Include/cmsis_gcc.h **** #else
 331:Drivers/CMSIS/Include/cmsis_gcc.h ****   int16_t result;
 332:Drivers/CMSIS/Include/cmsis_gcc.h **** 
 333:Drivers/CMSIS/Include/cmsis_gcc.h ****   __ASM ("revsh %0, %1" : __CMSIS_GCC_OUT_REG (result) : __CMSIS_GCC_USE_REG (value) );
 334:Drivers/CMSIS/Include/cmsis_gcc.h ****   return result;
 335:Drivers/CMSIS/Include/cmsis_gcc.h **** #endif
 336:Drivers/CMSIS/Include/cmsis_gcc.h **** }
 337:Drivers/CMSIS/Include/cmsis_gcc.h **** 
 338:Drivers/CMSIS/Include/cmsis_gcc.h **** 
 339:Drivers/CMSIS/Include/cmsis_gcc.h **** /**
 340:Drivers/CMSIS/Include/cmsis_gcc.h ****   \brief   Rotate Right in unsigned value (32 bit)
 341:Drivers/CMSIS/Include/cmsis_gcc.h ****   \details Rotate Right (immediate) provides the value of the contents of a register rotated by a v
 342:Drivers/CMSIS/Include/cmsis_gcc.h ****   \param [in]    op1  Value to rotate
 343:Drivers/CMSIS/Include/cmsis_gcc.h ****   \param [in]    op2  Number of Bits to rotate
 344:Drivers/CMSIS/Include/cmsis_gcc.h ****   \return               Rotated value
 345:Drivers/CMSIS/Include/cmsis_gcc.h ****  */
 346:Drivers/CMSIS/Include/cmsis_gcc.h **** __STATIC_FORCEINLINE uint32_t __ROR(uint32_t op1, uint32_t op2)
 347:Drivers/CMSIS/Include/cmsis_gcc.h **** {
 348:Drivers/CMSIS/Include/cmsis_gcc.h ****   op2 %= 32U;
 349:Drivers/CMSIS/Include/cmsis_gcc.h ****   if (op2 == 0U)
 350:Drivers/CMSIS/Include/cmsis_gcc.h ****   {
 351:Drivers/CMSIS/Include/cmsis_gcc.h ****     return op1;
 352:Drivers/CMSIS/Include/cmsis_gcc.h ****   }
ARM GAS  C:\Users\bulli\AppData\Local\Temp\ccgdAJmu.s 			page 32


 353:Drivers/CMSIS/Include/cmsis_gcc.h ****   return (op1 >> op2) | (op1 << (32U - op2));
 354:Drivers/CMSIS/Include/cmsis_gcc.h **** }
 355:Drivers/CMSIS/Include/cmsis_gcc.h **** 
 356:Drivers/CMSIS/Include/cmsis_gcc.h **** 
 357:Drivers/CMSIS/Include/cmsis_gcc.h **** /**
 358:Drivers/CMSIS/Include/cmsis_gcc.h ****   \brief   Breakpoint
 359:Drivers/CMSIS/Include/cmsis_gcc.h ****   \details Causes the processor to enter Debug state.
 360:Drivers/CMSIS/Include/cmsis_gcc.h ****            Debug tools can use this to investigate system state when the instruction at a particula
 361:Drivers/CMSIS/Include/cmsis_gcc.h ****   \param [in]    value  is ignored by the processor.
 362:Drivers/CMSIS/Include/cmsis_gcc.h ****                  If required, a debugger can use it to store additional information about the break
 363:Drivers/CMSIS/Include/cmsis_gcc.h ****  */
 364:Drivers/CMSIS/Include/cmsis_gcc.h **** #define __BKPT(value)                       __ASM volatile ("bkpt "#value)
 365:Drivers/CMSIS/Include/cmsis_gcc.h **** 
 366:Drivers/CMSIS/Include/cmsis_gcc.h **** 
 367:Drivers/CMSIS/Include/cmsis_gcc.h **** /**
 368:Drivers/CMSIS/Include/cmsis_gcc.h ****   \brief   Reverse bit order of value
 369:Drivers/CMSIS/Include/cmsis_gcc.h ****   \details Reverses the bit order of the given value.
 370:Drivers/CMSIS/Include/cmsis_gcc.h ****   \param [in]    value  Value to reverse
 371:Drivers/CMSIS/Include/cmsis_gcc.h ****   \return               Reversed value
 372:Drivers/CMSIS/Include/cmsis_gcc.h ****  */
 373:Drivers/CMSIS/Include/cmsis_gcc.h **** __STATIC_FORCEINLINE uint32_t __RBIT(uint32_t value)
 374:Drivers/CMSIS/Include/cmsis_gcc.h **** {
 375:Drivers/CMSIS/Include/cmsis_gcc.h ****   uint32_t result;
 376:Drivers/CMSIS/Include/cmsis_gcc.h **** 
 377:Drivers/CMSIS/Include/cmsis_gcc.h **** #if ((defined (__ARM_ARCH_7M__      ) && (__ARM_ARCH_7M__      == 1)) || \
 378:Drivers/CMSIS/Include/cmsis_gcc.h ****      (defined (__ARM_ARCH_7EM__     ) && (__ARM_ARCH_7EM__     == 1)) || \
 379:Drivers/CMSIS/Include/cmsis_gcc.h ****      (defined (__ARM_ARCH_8M_MAIN__ ) && (__ARM_ARCH_8M_MAIN__ == 1))    )
 380:Drivers/CMSIS/Include/cmsis_gcc.h ****    __ASM ("rbit %0, %1" : "=r" (result) : "r" (value) );
 381:Drivers/CMSIS/Include/cmsis_gcc.h **** #else
 382:Drivers/CMSIS/Include/cmsis_gcc.h ****   uint32_t s = (4U /*sizeof(v)*/ * 8U) - 1U; /* extra shift needed at end */
 383:Drivers/CMSIS/Include/cmsis_gcc.h **** 
 384:Drivers/CMSIS/Include/cmsis_gcc.h ****   result = value;                      /* r will be reversed bits of v; first get LSB of v */
 385:Drivers/CMSIS/Include/cmsis_gcc.h ****   for (value >>= 1U; value != 0U; value >>= 1U)
 386:Drivers/CMSIS/Include/cmsis_gcc.h ****   {
 387:Drivers/CMSIS/Include/cmsis_gcc.h ****     result <<= 1U;
 388:Drivers/CMSIS/Include/cmsis_gcc.h ****     result |= value & 1U;
 389:Drivers/CMSIS/Include/cmsis_gcc.h ****     s--;
 390:Drivers/CMSIS/Include/cmsis_gcc.h ****   }
 391:Drivers/CMSIS/Include/cmsis_gcc.h ****   result <<= s;                        /* shift when v's highest bits are zero */
 392:Drivers/CMSIS/Include/cmsis_gcc.h **** #endif
 393:Drivers/CMSIS/Include/cmsis_gcc.h ****   return result;
 394:Drivers/CMSIS/Include/cmsis_gcc.h **** }
 395:Drivers/CMSIS/Include/cmsis_gcc.h **** 
 396:Drivers/CMSIS/Include/cmsis_gcc.h **** 
 397:Drivers/CMSIS/Include/cmsis_gcc.h **** /**
 398:Drivers/CMSIS/Include/cmsis_gcc.h ****   \brief   Count leading zeros
 399:Drivers/CMSIS/Include/cmsis_gcc.h ****   \details Counts the number of leading zeros of a data value.
 400:Drivers/CMSIS/Include/cmsis_gcc.h ****   \param [in]  value  Value to count the leading zeros
 401:Drivers/CMSIS/Include/cmsis_gcc.h ****   \return             number of leading zeros in value
 402:Drivers/CMSIS/Include/cmsis_gcc.h ****  */
 403:Drivers/CMSIS/Include/cmsis_gcc.h **** __STATIC_FORCEINLINE uint8_t __CLZ(uint32_t value)
 404:Drivers/CMSIS/Include/cmsis_gcc.h **** {
 405:Drivers/CMSIS/Include/cmsis_gcc.h ****   /* Even though __builtin_clz produces a CLZ instruction on ARM, formally
 406:Drivers/CMSIS/Include/cmsis_gcc.h ****      __builtin_clz(0) is undefined behaviour, so handle this case specially.
 407:Drivers/CMSIS/Include/cmsis_gcc.h ****      This guarantees ARM-compatible results if happening to compile on a non-ARM
 408:Drivers/CMSIS/Include/cmsis_gcc.h ****      target, and ensures the compiler doesn't decide to activate any
 409:Drivers/CMSIS/Include/cmsis_gcc.h ****      optimisations using the logic "value was passed to __builtin_clz, so it
ARM GAS  C:\Users\bulli\AppData\Local\Temp\ccgdAJmu.s 			page 33


 410:Drivers/CMSIS/Include/cmsis_gcc.h ****      is non-zero".
 411:Drivers/CMSIS/Include/cmsis_gcc.h ****      ARM GCC 7.3 and possibly earlier will optimise this test away, leaving a
 412:Drivers/CMSIS/Include/cmsis_gcc.h ****      single CLZ instruction.
 413:Drivers/CMSIS/Include/cmsis_gcc.h ****    */
 414:Drivers/CMSIS/Include/cmsis_gcc.h ****   if (value == 0U)
 415:Drivers/CMSIS/Include/cmsis_gcc.h ****   {
 416:Drivers/CMSIS/Include/cmsis_gcc.h ****     return 32U;
 417:Drivers/CMSIS/Include/cmsis_gcc.h ****   }
 418:Drivers/CMSIS/Include/cmsis_gcc.h ****   return __builtin_clz(value);
 419:Drivers/CMSIS/Include/cmsis_gcc.h **** }
 420:Drivers/CMSIS/Include/cmsis_gcc.h **** 
 421:Drivers/CMSIS/Include/cmsis_gcc.h **** 
 422:Drivers/CMSIS/Include/cmsis_gcc.h **** #if ((defined (__ARM_ARCH_7M__      ) && (__ARM_ARCH_7M__      == 1)) || \
 423:Drivers/CMSIS/Include/cmsis_gcc.h ****      (defined (__ARM_ARCH_7EM__     ) && (__ARM_ARCH_7EM__     == 1)) || \
 424:Drivers/CMSIS/Include/cmsis_gcc.h ****      (defined (__ARM_ARCH_8M_MAIN__ ) && (__ARM_ARCH_8M_MAIN__ == 1)) || \
 425:Drivers/CMSIS/Include/cmsis_gcc.h ****      (defined (__ARM_ARCH_8M_BASE__ ) && (__ARM_ARCH_8M_BASE__ == 1))    )
 426:Drivers/CMSIS/Include/cmsis_gcc.h **** /**
 427:Drivers/CMSIS/Include/cmsis_gcc.h ****   \brief   LDR Exclusive (8 bit)
 428:Drivers/CMSIS/Include/cmsis_gcc.h ****   \details Executes a exclusive LDR instruction for 8 bit value.
 429:Drivers/CMSIS/Include/cmsis_gcc.h ****   \param [in]    ptr  Pointer to data
 430:Drivers/CMSIS/Include/cmsis_gcc.h ****   \return             value of type uint8_t at (*ptr)
 431:Drivers/CMSIS/Include/cmsis_gcc.h ****  */
 432:Drivers/CMSIS/Include/cmsis_gcc.h **** __STATIC_FORCEINLINE uint8_t __LDREXB(volatile uint8_t *addr)
 433:Drivers/CMSIS/Include/cmsis_gcc.h **** {
 434:Drivers/CMSIS/Include/cmsis_gcc.h ****     uint32_t result;
 435:Drivers/CMSIS/Include/cmsis_gcc.h **** 
 436:Drivers/CMSIS/Include/cmsis_gcc.h **** #if (__GNUC__ > 4) || (__GNUC__ == 4 && __GNUC_MINOR__ >= 8)
 437:Drivers/CMSIS/Include/cmsis_gcc.h ****    __ASM volatile ("ldrexb %0, %1" : "=r" (result) : "Q" (*addr) );
 438:Drivers/CMSIS/Include/cmsis_gcc.h **** #else
 439:Drivers/CMSIS/Include/cmsis_gcc.h ****     /* Prior to GCC 4.8, "Q" will be expanded to [rx, #0] which is not
 440:Drivers/CMSIS/Include/cmsis_gcc.h ****        accepted by assembler. So has to use following less efficient pattern.
 441:Drivers/CMSIS/Include/cmsis_gcc.h ****     */
 442:Drivers/CMSIS/Include/cmsis_gcc.h ****    __ASM volatile ("ldrexb %0, [%1]" : "=r" (result) : "r" (addr) : "memory" );
 443:Drivers/CMSIS/Include/cmsis_gcc.h **** #endif
 444:Drivers/CMSIS/Include/cmsis_gcc.h ****    return ((uint8_t) result);    /* Add explicit type cast here */
 445:Drivers/CMSIS/Include/cmsis_gcc.h **** }
 446:Drivers/CMSIS/Include/cmsis_gcc.h **** 
 447:Drivers/CMSIS/Include/cmsis_gcc.h **** 
 448:Drivers/CMSIS/Include/cmsis_gcc.h **** /**
 449:Drivers/CMSIS/Include/cmsis_gcc.h ****   \brief   LDR Exclusive (16 bit)
 450:Drivers/CMSIS/Include/cmsis_gcc.h ****   \details Executes a exclusive LDR instruction for 16 bit values.
 451:Drivers/CMSIS/Include/cmsis_gcc.h ****   \param [in]    ptr  Pointer to data
 452:Drivers/CMSIS/Include/cmsis_gcc.h ****   \return        value of type uint16_t at (*ptr)
 453:Drivers/CMSIS/Include/cmsis_gcc.h ****  */
 454:Drivers/CMSIS/Include/cmsis_gcc.h **** __STATIC_FORCEINLINE uint16_t __LDREXH(volatile uint16_t *addr)
 455:Drivers/CMSIS/Include/cmsis_gcc.h **** {
 456:Drivers/CMSIS/Include/cmsis_gcc.h ****     uint32_t result;
 457:Drivers/CMSIS/Include/cmsis_gcc.h **** 
 458:Drivers/CMSIS/Include/cmsis_gcc.h **** #if (__GNUC__ > 4) || (__GNUC__ == 4 && __GNUC_MINOR__ >= 8)
 459:Drivers/CMSIS/Include/cmsis_gcc.h ****    __ASM volatile ("ldrexh %0, %1" : "=r" (result) : "Q" (*addr) );
 460:Drivers/CMSIS/Include/cmsis_gcc.h **** #else
 461:Drivers/CMSIS/Include/cmsis_gcc.h ****     /* Prior to GCC 4.8, "Q" will be expanded to [rx, #0] which is not
 462:Drivers/CMSIS/Include/cmsis_gcc.h ****        accepted by assembler. So has to use following less efficient pattern.
 463:Drivers/CMSIS/Include/cmsis_gcc.h ****     */
 464:Drivers/CMSIS/Include/cmsis_gcc.h ****    __ASM volatile ("ldrexh %0, [%1]" : "=r" (result) : "r" (addr) : "memory" );
 465:Drivers/CMSIS/Include/cmsis_gcc.h **** #endif
 466:Drivers/CMSIS/Include/cmsis_gcc.h ****    return ((uint16_t) result);    /* Add explicit type cast here */
ARM GAS  C:\Users\bulli\AppData\Local\Temp\ccgdAJmu.s 			page 34


 467:Drivers/CMSIS/Include/cmsis_gcc.h **** }
 468:Drivers/CMSIS/Include/cmsis_gcc.h **** 
 469:Drivers/CMSIS/Include/cmsis_gcc.h **** 
 470:Drivers/CMSIS/Include/cmsis_gcc.h **** /**
 471:Drivers/CMSIS/Include/cmsis_gcc.h ****   \brief   LDR Exclusive (32 bit)
 472:Drivers/CMSIS/Include/cmsis_gcc.h ****   \details Executes a exclusive LDR instruction for 32 bit values.
 473:Drivers/CMSIS/Include/cmsis_gcc.h ****   \param [in]    ptr  Pointer to data
 474:Drivers/CMSIS/Include/cmsis_gcc.h ****   \return        value of type uint32_t at (*ptr)
 475:Drivers/CMSIS/Include/cmsis_gcc.h ****  */
 476:Drivers/CMSIS/Include/cmsis_gcc.h **** __STATIC_FORCEINLINE uint32_t __LDREXW(volatile uint32_t *addr)
 477:Drivers/CMSIS/Include/cmsis_gcc.h **** {
 478:Drivers/CMSIS/Include/cmsis_gcc.h ****     uint32_t result;
 479:Drivers/CMSIS/Include/cmsis_gcc.h **** 
 480:Drivers/CMSIS/Include/cmsis_gcc.h ****    __ASM volatile ("ldrex %0, %1" : "=r" (result) : "Q" (*addr) );
 481:Drivers/CMSIS/Include/cmsis_gcc.h ****    return(result);
 482:Drivers/CMSIS/Include/cmsis_gcc.h **** }
 483:Drivers/CMSIS/Include/cmsis_gcc.h **** 
 484:Drivers/CMSIS/Include/cmsis_gcc.h **** 
 485:Drivers/CMSIS/Include/cmsis_gcc.h **** /**
 486:Drivers/CMSIS/Include/cmsis_gcc.h ****   \brief   STR Exclusive (8 bit)
 487:Drivers/CMSIS/Include/cmsis_gcc.h ****   \details Executes a exclusive STR instruction for 8 bit values.
 488:Drivers/CMSIS/Include/cmsis_gcc.h ****   \param [in]  value  Value to store
 489:Drivers/CMSIS/Include/cmsis_gcc.h ****   \param [in]    ptr  Pointer to location
 490:Drivers/CMSIS/Include/cmsis_gcc.h ****   \return          0  Function succeeded
 491:Drivers/CMSIS/Include/cmsis_gcc.h ****   \return          1  Function failed
 492:Drivers/CMSIS/Include/cmsis_gcc.h ****  */
 493:Drivers/CMSIS/Include/cmsis_gcc.h **** __STATIC_FORCEINLINE uint32_t __STREXB(uint8_t value, volatile uint8_t *addr)
 494:Drivers/CMSIS/Include/cmsis_gcc.h **** {
 495:Drivers/CMSIS/Include/cmsis_gcc.h ****    uint32_t result;
 496:Drivers/CMSIS/Include/cmsis_gcc.h **** 
 497:Drivers/CMSIS/Include/cmsis_gcc.h ****    __ASM volatile ("strexb %0, %2, %1" : "=&r" (result), "=Q" (*addr) : "r" ((uint32_t)value) );
 498:Drivers/CMSIS/Include/cmsis_gcc.h ****    return(result);
 499:Drivers/CMSIS/Include/cmsis_gcc.h **** }
 500:Drivers/CMSIS/Include/cmsis_gcc.h **** 
 501:Drivers/CMSIS/Include/cmsis_gcc.h **** 
 502:Drivers/CMSIS/Include/cmsis_gcc.h **** /**
 503:Drivers/CMSIS/Include/cmsis_gcc.h ****   \brief   STR Exclusive (16 bit)
 504:Drivers/CMSIS/Include/cmsis_gcc.h ****   \details Executes a exclusive STR instruction for 16 bit values.
 505:Drivers/CMSIS/Include/cmsis_gcc.h ****   \param [in]  value  Value to store
 506:Drivers/CMSIS/Include/cmsis_gcc.h ****   \param [in]    ptr  Pointer to location
 507:Drivers/CMSIS/Include/cmsis_gcc.h ****   \return          0  Function succeeded
 508:Drivers/CMSIS/Include/cmsis_gcc.h ****   \return          1  Function failed
 509:Drivers/CMSIS/Include/cmsis_gcc.h ****  */
 510:Drivers/CMSIS/Include/cmsis_gcc.h **** __STATIC_FORCEINLINE uint32_t __STREXH(uint16_t value, volatile uint16_t *addr)
 511:Drivers/CMSIS/Include/cmsis_gcc.h **** {
 512:Drivers/CMSIS/Include/cmsis_gcc.h ****    uint32_t result;
 513:Drivers/CMSIS/Include/cmsis_gcc.h **** 
 514:Drivers/CMSIS/Include/cmsis_gcc.h ****    __ASM volatile ("strexh %0, %2, %1" : "=&r" (result), "=Q" (*addr) : "r" ((uint32_t)value) );
 515:Drivers/CMSIS/Include/cmsis_gcc.h ****    return(result);
 516:Drivers/CMSIS/Include/cmsis_gcc.h **** }
 517:Drivers/CMSIS/Include/cmsis_gcc.h **** 
 518:Drivers/CMSIS/Include/cmsis_gcc.h **** 
 519:Drivers/CMSIS/Include/cmsis_gcc.h **** /**
 520:Drivers/CMSIS/Include/cmsis_gcc.h ****   \brief   STR Exclusive (32 bit)
 521:Drivers/CMSIS/Include/cmsis_gcc.h ****   \details Executes a exclusive STR instruction for 32 bit values.
 522:Drivers/CMSIS/Include/cmsis_gcc.h ****   \param [in]  value  Value to store
 523:Drivers/CMSIS/Include/cmsis_gcc.h ****   \param [in]    ptr  Pointer to location
ARM GAS  C:\Users\bulli\AppData\Local\Temp\ccgdAJmu.s 			page 35


 524:Drivers/CMSIS/Include/cmsis_gcc.h ****   \return          0  Function succeeded
 525:Drivers/CMSIS/Include/cmsis_gcc.h ****   \return          1  Function failed
 526:Drivers/CMSIS/Include/cmsis_gcc.h ****  */
 527:Drivers/CMSIS/Include/cmsis_gcc.h **** __STATIC_FORCEINLINE uint32_t __STREXW(uint32_t value, volatile uint32_t *addr)
 528:Drivers/CMSIS/Include/cmsis_gcc.h **** {
 529:Drivers/CMSIS/Include/cmsis_gcc.h ****    uint32_t result;
 530:Drivers/CMSIS/Include/cmsis_gcc.h **** 
 531:Drivers/CMSIS/Include/cmsis_gcc.h ****    __ASM volatile ("strex %0, %2, %1" : "=&r" (result), "=Q" (*addr) : "r" (value) );
 532:Drivers/CMSIS/Include/cmsis_gcc.h ****    return(result);
 533:Drivers/CMSIS/Include/cmsis_gcc.h **** }
 534:Drivers/CMSIS/Include/cmsis_gcc.h **** 
 535:Drivers/CMSIS/Include/cmsis_gcc.h **** 
 536:Drivers/CMSIS/Include/cmsis_gcc.h **** /**
 537:Drivers/CMSIS/Include/cmsis_gcc.h ****   \brief   Remove the exclusive lock
 538:Drivers/CMSIS/Include/cmsis_gcc.h ****   \details Removes the exclusive lock which is created by LDREX.
 539:Drivers/CMSIS/Include/cmsis_gcc.h ****  */
 540:Drivers/CMSIS/Include/cmsis_gcc.h **** __STATIC_FORCEINLINE void __CLREX(void)
 541:Drivers/CMSIS/Include/cmsis_gcc.h **** {
 542:Drivers/CMSIS/Include/cmsis_gcc.h ****   __ASM volatile ("clrex" ::: "memory");
 543:Drivers/CMSIS/Include/cmsis_gcc.h **** }
 544:Drivers/CMSIS/Include/cmsis_gcc.h **** 
 545:Drivers/CMSIS/Include/cmsis_gcc.h **** #endif /* ((defined (__ARM_ARCH_7M__      ) && (__ARM_ARCH_7M__      == 1)) || \
 546:Drivers/CMSIS/Include/cmsis_gcc.h ****            (defined (__ARM_ARCH_7EM__     ) && (__ARM_ARCH_7EM__     == 1)) || \
 547:Drivers/CMSIS/Include/cmsis_gcc.h ****            (defined (__ARM_ARCH_8M_MAIN__ ) && (__ARM_ARCH_8M_MAIN__ == 1)) || \
 548:Drivers/CMSIS/Include/cmsis_gcc.h ****            (defined (__ARM_ARCH_8M_BASE__ ) && (__ARM_ARCH_8M_BASE__ == 1))    ) */
 549:Drivers/CMSIS/Include/cmsis_gcc.h **** 
 550:Drivers/CMSIS/Include/cmsis_gcc.h **** 
 551:Drivers/CMSIS/Include/cmsis_gcc.h **** #if ((defined (__ARM_ARCH_7M__      ) && (__ARM_ARCH_7M__      == 1)) || \
 552:Drivers/CMSIS/Include/cmsis_gcc.h ****      (defined (__ARM_ARCH_7EM__     ) && (__ARM_ARCH_7EM__     == 1)) || \
 553:Drivers/CMSIS/Include/cmsis_gcc.h ****      (defined (__ARM_ARCH_8M_MAIN__ ) && (__ARM_ARCH_8M_MAIN__ == 1))    )
 554:Drivers/CMSIS/Include/cmsis_gcc.h **** /**
 555:Drivers/CMSIS/Include/cmsis_gcc.h ****   \brief   Signed Saturate
 556:Drivers/CMSIS/Include/cmsis_gcc.h ****   \details Saturates a signed value.
 557:Drivers/CMSIS/Include/cmsis_gcc.h ****   \param [in]  ARG1  Value to be saturated
 558:Drivers/CMSIS/Include/cmsis_gcc.h ****   \param [in]  ARG2  Bit position to saturate to (1..32)
 559:Drivers/CMSIS/Include/cmsis_gcc.h ****   \return             Saturated value
 560:Drivers/CMSIS/Include/cmsis_gcc.h ****  */
 561:Drivers/CMSIS/Include/cmsis_gcc.h **** #define __SSAT(ARG1, ARG2) \
 562:Drivers/CMSIS/Include/cmsis_gcc.h **** __extension__ \
 563:Drivers/CMSIS/Include/cmsis_gcc.h **** ({                          \
 564:Drivers/CMSIS/Include/cmsis_gcc.h ****   int32_t __RES, __ARG1 = (ARG1); \
 565:Drivers/CMSIS/Include/cmsis_gcc.h ****   __ASM volatile ("ssat %0, %1, %2" : "=r" (__RES) :  "I" (ARG2), "r" (__ARG1) : "cc" ); \
 566:Drivers/CMSIS/Include/cmsis_gcc.h ****   __RES; \
 567:Drivers/CMSIS/Include/cmsis_gcc.h ****  })
 568:Drivers/CMSIS/Include/cmsis_gcc.h **** 
 569:Drivers/CMSIS/Include/cmsis_gcc.h **** 
 570:Drivers/CMSIS/Include/cmsis_gcc.h **** /**
 571:Drivers/CMSIS/Include/cmsis_gcc.h ****   \brief   Unsigned Saturate
 572:Drivers/CMSIS/Include/cmsis_gcc.h ****   \details Saturates an unsigned value.
 573:Drivers/CMSIS/Include/cmsis_gcc.h ****   \param [in]  ARG1  Value to be saturated
 574:Drivers/CMSIS/Include/cmsis_gcc.h ****   \param [in]  ARG2  Bit position to saturate to (0..31)
 575:Drivers/CMSIS/Include/cmsis_gcc.h ****   \return             Saturated value
 576:Drivers/CMSIS/Include/cmsis_gcc.h ****  */
 577:Drivers/CMSIS/Include/cmsis_gcc.h **** #define __USAT(ARG1, ARG2) \
 578:Drivers/CMSIS/Include/cmsis_gcc.h **** __extension__ \
 579:Drivers/CMSIS/Include/cmsis_gcc.h **** ({                          \
 580:Drivers/CMSIS/Include/cmsis_gcc.h ****   uint32_t __RES, __ARG1 = (ARG1); \
ARM GAS  C:\Users\bulli\AppData\Local\Temp\ccgdAJmu.s 			page 36


 581:Drivers/CMSIS/Include/cmsis_gcc.h ****   __ASM volatile ("usat %0, %1, %2" : "=r" (__RES) :  "I" (ARG2), "r" (__ARG1) : "cc" ); \
 582:Drivers/CMSIS/Include/cmsis_gcc.h ****   __RES; \
 583:Drivers/CMSIS/Include/cmsis_gcc.h ****  })
 584:Drivers/CMSIS/Include/cmsis_gcc.h **** 
 585:Drivers/CMSIS/Include/cmsis_gcc.h **** 
 586:Drivers/CMSIS/Include/cmsis_gcc.h **** /**
 587:Drivers/CMSIS/Include/cmsis_gcc.h ****   \brief   Rotate Right with Extend (32 bit)
 588:Drivers/CMSIS/Include/cmsis_gcc.h ****   \details Moves each bit of a bitstring right by one bit.
 589:Drivers/CMSIS/Include/cmsis_gcc.h ****            The carry input is shifted in at the left end of the bitstring.
 590:Drivers/CMSIS/Include/cmsis_gcc.h ****   \param [in]    value  Value to rotate
 591:Drivers/CMSIS/Include/cmsis_gcc.h ****   \return               Rotated value
 592:Drivers/CMSIS/Include/cmsis_gcc.h ****  */
 593:Drivers/CMSIS/Include/cmsis_gcc.h **** __STATIC_FORCEINLINE uint32_t __RRX(uint32_t value)
 594:Drivers/CMSIS/Include/cmsis_gcc.h **** {
 595:Drivers/CMSIS/Include/cmsis_gcc.h ****   uint32_t result;
 596:Drivers/CMSIS/Include/cmsis_gcc.h **** 
 597:Drivers/CMSIS/Include/cmsis_gcc.h ****   __ASM volatile ("rrx %0, %1" : __CMSIS_GCC_OUT_REG (result) : __CMSIS_GCC_USE_REG (value) );
 598:Drivers/CMSIS/Include/cmsis_gcc.h ****   return(result);
 599:Drivers/CMSIS/Include/cmsis_gcc.h **** }
 600:Drivers/CMSIS/Include/cmsis_gcc.h **** 
 601:Drivers/CMSIS/Include/cmsis_gcc.h **** 
 602:Drivers/CMSIS/Include/cmsis_gcc.h **** /**
 603:Drivers/CMSIS/Include/cmsis_gcc.h ****   \brief   LDRT Unprivileged (8 bit)
 604:Drivers/CMSIS/Include/cmsis_gcc.h ****   \details Executes a Unprivileged LDRT instruction for 8 bit value.
 605:Drivers/CMSIS/Include/cmsis_gcc.h ****   \param [in]    ptr  Pointer to data
 606:Drivers/CMSIS/Include/cmsis_gcc.h ****   \return             value of type uint8_t at (*ptr)
 607:Drivers/CMSIS/Include/cmsis_gcc.h ****  */
 608:Drivers/CMSIS/Include/cmsis_gcc.h **** __STATIC_FORCEINLINE uint8_t __LDRBT(volatile uint8_t *ptr)
 609:Drivers/CMSIS/Include/cmsis_gcc.h **** {
 610:Drivers/CMSIS/Include/cmsis_gcc.h ****     uint32_t result;
 611:Drivers/CMSIS/Include/cmsis_gcc.h **** 
 612:Drivers/CMSIS/Include/cmsis_gcc.h **** #if (__GNUC__ > 4) || (__GNUC__ == 4 && __GNUC_MINOR__ >= 8)
 613:Drivers/CMSIS/Include/cmsis_gcc.h ****    __ASM volatile ("ldrbt %0, %1" : "=r" (result) : "Q" (*ptr) );
 614:Drivers/CMSIS/Include/cmsis_gcc.h **** #else
 615:Drivers/CMSIS/Include/cmsis_gcc.h ****     /* Prior to GCC 4.8, "Q" will be expanded to [rx, #0] which is not
 616:Drivers/CMSIS/Include/cmsis_gcc.h ****        accepted by assembler. So has to use following less efficient pattern.
 617:Drivers/CMSIS/Include/cmsis_gcc.h ****     */
 618:Drivers/CMSIS/Include/cmsis_gcc.h ****    __ASM volatile ("ldrbt %0, [%1]" : "=r" (result) : "r" (ptr) : "memory" );
 619:Drivers/CMSIS/Include/cmsis_gcc.h **** #endif
 620:Drivers/CMSIS/Include/cmsis_gcc.h ****    return ((uint8_t) result);    /* Add explicit type cast here */
 621:Drivers/CMSIS/Include/cmsis_gcc.h **** }
 622:Drivers/CMSIS/Include/cmsis_gcc.h **** 
 623:Drivers/CMSIS/Include/cmsis_gcc.h **** 
 624:Drivers/CMSIS/Include/cmsis_gcc.h **** /**
 625:Drivers/CMSIS/Include/cmsis_gcc.h ****   \brief   LDRT Unprivileged (16 bit)
 626:Drivers/CMSIS/Include/cmsis_gcc.h ****   \details Executes a Unprivileged LDRT instruction for 16 bit values.
 627:Drivers/CMSIS/Include/cmsis_gcc.h ****   \param [in]    ptr  Pointer to data
 628:Drivers/CMSIS/Include/cmsis_gcc.h ****   \return        value of type uint16_t at (*ptr)
 629:Drivers/CMSIS/Include/cmsis_gcc.h ****  */
 630:Drivers/CMSIS/Include/cmsis_gcc.h **** __STATIC_FORCEINLINE uint16_t __LDRHT(volatile uint16_t *ptr)
 631:Drivers/CMSIS/Include/cmsis_gcc.h **** {
 632:Drivers/CMSIS/Include/cmsis_gcc.h ****     uint32_t result;
 633:Drivers/CMSIS/Include/cmsis_gcc.h **** 
 634:Drivers/CMSIS/Include/cmsis_gcc.h **** #if (__GNUC__ > 4) || (__GNUC__ == 4 && __GNUC_MINOR__ >= 8)
 635:Drivers/CMSIS/Include/cmsis_gcc.h ****    __ASM volatile ("ldrht %0, %1" : "=r" (result) : "Q" (*ptr) );
 636:Drivers/CMSIS/Include/cmsis_gcc.h **** #else
 637:Drivers/CMSIS/Include/cmsis_gcc.h ****     /* Prior to GCC 4.8, "Q" will be expanded to [rx, #0] which is not
ARM GAS  C:\Users\bulli\AppData\Local\Temp\ccgdAJmu.s 			page 37


 638:Drivers/CMSIS/Include/cmsis_gcc.h ****        accepted by assembler. So has to use following less efficient pattern.
 639:Drivers/CMSIS/Include/cmsis_gcc.h ****     */
 640:Drivers/CMSIS/Include/cmsis_gcc.h ****    __ASM volatile ("ldrht %0, [%1]" : "=r" (result) : "r" (ptr) : "memory" );
 641:Drivers/CMSIS/Include/cmsis_gcc.h **** #endif
 642:Drivers/CMSIS/Include/cmsis_gcc.h ****    return ((uint16_t) result);    /* Add explicit type cast here */
 643:Drivers/CMSIS/Include/cmsis_gcc.h **** }
 644:Drivers/CMSIS/Include/cmsis_gcc.h **** 
 645:Drivers/CMSIS/Include/cmsis_gcc.h **** 
 646:Drivers/CMSIS/Include/cmsis_gcc.h **** /**
 647:Drivers/CMSIS/Include/cmsis_gcc.h ****   \brief   LDRT Unprivileged (32 bit)
 648:Drivers/CMSIS/Include/cmsis_gcc.h ****   \details Executes a Unprivileged LDRT instruction for 32 bit values.
 649:Drivers/CMSIS/Include/cmsis_gcc.h ****   \param [in]    ptr  Pointer to data
 650:Drivers/CMSIS/Include/cmsis_gcc.h ****   \return        value of type uint32_t at (*ptr)
 651:Drivers/CMSIS/Include/cmsis_gcc.h ****  */
 652:Drivers/CMSIS/Include/cmsis_gcc.h **** __STATIC_FORCEINLINE uint32_t __LDRT(volatile uint32_t *ptr)
 653:Drivers/CMSIS/Include/cmsis_gcc.h **** {
 654:Drivers/CMSIS/Include/cmsis_gcc.h ****     uint32_t result;
 655:Drivers/CMSIS/Include/cmsis_gcc.h **** 
 656:Drivers/CMSIS/Include/cmsis_gcc.h ****    __ASM volatile ("ldrt %0, %1" : "=r" (result) : "Q" (*ptr) );
 657:Drivers/CMSIS/Include/cmsis_gcc.h ****    return(result);
 658:Drivers/CMSIS/Include/cmsis_gcc.h **** }
 659:Drivers/CMSIS/Include/cmsis_gcc.h **** 
 660:Drivers/CMSIS/Include/cmsis_gcc.h **** 
 661:Drivers/CMSIS/Include/cmsis_gcc.h **** /**
 662:Drivers/CMSIS/Include/cmsis_gcc.h ****   \brief   STRT Unprivileged (8 bit)
 663:Drivers/CMSIS/Include/cmsis_gcc.h ****   \details Executes a Unprivileged STRT instruction for 8 bit values.
 664:Drivers/CMSIS/Include/cmsis_gcc.h ****   \param [in]  value  Value to store
 665:Drivers/CMSIS/Include/cmsis_gcc.h ****   \param [in]    ptr  Pointer to location
 666:Drivers/CMSIS/Include/cmsis_gcc.h ****  */
 667:Drivers/CMSIS/Include/cmsis_gcc.h **** __STATIC_FORCEINLINE void __STRBT(uint8_t value, volatile uint8_t *ptr)
 668:Drivers/CMSIS/Include/cmsis_gcc.h **** {
 669:Drivers/CMSIS/Include/cmsis_gcc.h ****    __ASM volatile ("strbt %1, %0" : "=Q" (*ptr) : "r" ((uint32_t)value) );
 670:Drivers/CMSIS/Include/cmsis_gcc.h **** }
 671:Drivers/CMSIS/Include/cmsis_gcc.h **** 
 672:Drivers/CMSIS/Include/cmsis_gcc.h **** 
 673:Drivers/CMSIS/Include/cmsis_gcc.h **** /**
 674:Drivers/CMSIS/Include/cmsis_gcc.h ****   \brief   STRT Unprivileged (16 bit)
 675:Drivers/CMSIS/Include/cmsis_gcc.h ****   \details Executes a Unprivileged STRT instruction for 16 bit values.
 676:Drivers/CMSIS/Include/cmsis_gcc.h ****   \param [in]  value  Value to store
 677:Drivers/CMSIS/Include/cmsis_gcc.h ****   \param [in]    ptr  Pointer to location
 678:Drivers/CMSIS/Include/cmsis_gcc.h ****  */
 679:Drivers/CMSIS/Include/cmsis_gcc.h **** __STATIC_FORCEINLINE void __STRHT(uint16_t value, volatile uint16_t *ptr)
 680:Drivers/CMSIS/Include/cmsis_gcc.h **** {
 681:Drivers/CMSIS/Include/cmsis_gcc.h ****    __ASM volatile ("strht %1, %0" : "=Q" (*ptr) : "r" ((uint32_t)value) );
 682:Drivers/CMSIS/Include/cmsis_gcc.h **** }
 683:Drivers/CMSIS/Include/cmsis_gcc.h **** 
 684:Drivers/CMSIS/Include/cmsis_gcc.h **** 
 685:Drivers/CMSIS/Include/cmsis_gcc.h **** /**
 686:Drivers/CMSIS/Include/cmsis_gcc.h ****   \brief   STRT Unprivileged (32 bit)
 687:Drivers/CMSIS/Include/cmsis_gcc.h ****   \details Executes a Unprivileged STRT instruction for 32 bit values.
 688:Drivers/CMSIS/Include/cmsis_gcc.h ****   \param [in]  value  Value to store
 689:Drivers/CMSIS/Include/cmsis_gcc.h ****   \param [in]    ptr  Pointer to location
 690:Drivers/CMSIS/Include/cmsis_gcc.h ****  */
 691:Drivers/CMSIS/Include/cmsis_gcc.h **** __STATIC_FORCEINLINE void __STRT(uint32_t value, volatile uint32_t *ptr)
 692:Drivers/CMSIS/Include/cmsis_gcc.h **** {
 693:Drivers/CMSIS/Include/cmsis_gcc.h ****    __ASM volatile ("strt %1, %0" : "=Q" (*ptr) : "r" (value) );
 694:Drivers/CMSIS/Include/cmsis_gcc.h **** }
ARM GAS  C:\Users\bulli\AppData\Local\Temp\ccgdAJmu.s 			page 38


 695:Drivers/CMSIS/Include/cmsis_gcc.h **** 
 696:Drivers/CMSIS/Include/cmsis_gcc.h **** #else  /* ((defined (__ARM_ARCH_7M__      ) && (__ARM_ARCH_7M__      == 1)) || \
 697:Drivers/CMSIS/Include/cmsis_gcc.h ****            (defined (__ARM_ARCH_7EM__     ) && (__ARM_ARCH_7EM__     == 1)) || \
 698:Drivers/CMSIS/Include/cmsis_gcc.h ****            (defined (__ARM_ARCH_8M_MAIN__ ) && (__ARM_ARCH_8M_MAIN__ == 1))    ) */
 699:Drivers/CMSIS/Include/cmsis_gcc.h **** 
 700:Drivers/CMSIS/Include/cmsis_gcc.h **** /**
 701:Drivers/CMSIS/Include/cmsis_gcc.h ****   \brief   Signed Saturate
 702:Drivers/CMSIS/Include/cmsis_gcc.h ****   \details Saturates a signed value.
 703:Drivers/CMSIS/Include/cmsis_gcc.h ****   \param [in]  value  Value to be saturated
 704:Drivers/CMSIS/Include/cmsis_gcc.h ****   \param [in]    sat  Bit position to saturate to (1..32)
 705:Drivers/CMSIS/Include/cmsis_gcc.h ****   \return             Saturated value
 706:Drivers/CMSIS/Include/cmsis_gcc.h ****  */
 707:Drivers/CMSIS/Include/cmsis_gcc.h **** __STATIC_FORCEINLINE int32_t __SSAT(int32_t val, uint32_t sat)
 708:Drivers/CMSIS/Include/cmsis_gcc.h **** {
 709:Drivers/CMSIS/Include/cmsis_gcc.h ****   if ((sat >= 1U) && (sat <= 32U))
 710:Drivers/CMSIS/Include/cmsis_gcc.h ****   {
 711:Drivers/CMSIS/Include/cmsis_gcc.h ****     const int32_t max = (int32_t)((1U << (sat - 1U)) - 1U);
 712:Drivers/CMSIS/Include/cmsis_gcc.h ****     const int32_t min = -1 - max ;
 713:Drivers/CMSIS/Include/cmsis_gcc.h ****     if (val > max)
 714:Drivers/CMSIS/Include/cmsis_gcc.h ****     {
 715:Drivers/CMSIS/Include/cmsis_gcc.h ****       return max;
 716:Drivers/CMSIS/Include/cmsis_gcc.h ****     }
 717:Drivers/CMSIS/Include/cmsis_gcc.h ****     else if (val < min)
 718:Drivers/CMSIS/Include/cmsis_gcc.h ****     {
 719:Drivers/CMSIS/Include/cmsis_gcc.h ****       return min;
 720:Drivers/CMSIS/Include/cmsis_gcc.h ****     }
 721:Drivers/CMSIS/Include/cmsis_gcc.h ****   }
 722:Drivers/CMSIS/Include/cmsis_gcc.h ****   return val;
 723:Drivers/CMSIS/Include/cmsis_gcc.h **** }
 724:Drivers/CMSIS/Include/cmsis_gcc.h **** 
 725:Drivers/CMSIS/Include/cmsis_gcc.h **** /**
 726:Drivers/CMSIS/Include/cmsis_gcc.h ****   \brief   Unsigned Saturate
 727:Drivers/CMSIS/Include/cmsis_gcc.h ****   \details Saturates an unsigned value.
 728:Drivers/CMSIS/Include/cmsis_gcc.h ****   \param [in]  value  Value to be saturated
 729:Drivers/CMSIS/Include/cmsis_gcc.h ****   \param [in]    sat  Bit position to saturate to (0..31)
 730:Drivers/CMSIS/Include/cmsis_gcc.h ****   \return             Saturated value
 731:Drivers/CMSIS/Include/cmsis_gcc.h ****  */
 732:Drivers/CMSIS/Include/cmsis_gcc.h **** __STATIC_FORCEINLINE uint32_t __USAT(int32_t val, uint32_t sat)
 733:Drivers/CMSIS/Include/cmsis_gcc.h **** {
 734:Drivers/CMSIS/Include/cmsis_gcc.h ****   if (sat <= 31U)
 735:Drivers/CMSIS/Include/cmsis_gcc.h ****   {
 736:Drivers/CMSIS/Include/cmsis_gcc.h ****     const uint32_t max = ((1U << sat) - 1U);
 737:Drivers/CMSIS/Include/cmsis_gcc.h ****     if (val > (int32_t)max)
 738:Drivers/CMSIS/Include/cmsis_gcc.h ****     {
 739:Drivers/CMSIS/Include/cmsis_gcc.h ****       return max;
 740:Drivers/CMSIS/Include/cmsis_gcc.h ****     }
 741:Drivers/CMSIS/Include/cmsis_gcc.h ****     else if (val < 0)
 742:Drivers/CMSIS/Include/cmsis_gcc.h ****     {
 743:Drivers/CMSIS/Include/cmsis_gcc.h ****       return 0U;
 744:Drivers/CMSIS/Include/cmsis_gcc.h ****     }
 745:Drivers/CMSIS/Include/cmsis_gcc.h ****   }
 746:Drivers/CMSIS/Include/cmsis_gcc.h ****   return (uint32_t)val;
 747:Drivers/CMSIS/Include/cmsis_gcc.h **** }
 748:Drivers/CMSIS/Include/cmsis_gcc.h **** 
 749:Drivers/CMSIS/Include/cmsis_gcc.h **** #endif /* ((defined (__ARM_ARCH_7M__      ) && (__ARM_ARCH_7M__      == 1)) || \
 750:Drivers/CMSIS/Include/cmsis_gcc.h ****            (defined (__ARM_ARCH_7EM__     ) && (__ARM_ARCH_7EM__     == 1)) || \
 751:Drivers/CMSIS/Include/cmsis_gcc.h ****            (defined (__ARM_ARCH_8M_MAIN__ ) && (__ARM_ARCH_8M_MAIN__ == 1))    ) */
ARM GAS  C:\Users\bulli\AppData\Local\Temp\ccgdAJmu.s 			page 39


 752:Drivers/CMSIS/Include/cmsis_gcc.h **** 
 753:Drivers/CMSIS/Include/cmsis_gcc.h **** 
 754:Drivers/CMSIS/Include/cmsis_gcc.h **** #if ((defined (__ARM_ARCH_8M_MAIN__ ) && (__ARM_ARCH_8M_MAIN__ == 1)) || \
 755:Drivers/CMSIS/Include/cmsis_gcc.h ****      (defined (__ARM_ARCH_8M_BASE__ ) && (__ARM_ARCH_8M_BASE__ == 1))    )
 756:Drivers/CMSIS/Include/cmsis_gcc.h **** /**
 757:Drivers/CMSIS/Include/cmsis_gcc.h ****   \brief   Load-Acquire (8 bit)
 758:Drivers/CMSIS/Include/cmsis_gcc.h ****   \details Executes a LDAB instruction for 8 bit value.
 759:Drivers/CMSIS/Include/cmsis_gcc.h ****   \param [in]    ptr  Pointer to data
 760:Drivers/CMSIS/Include/cmsis_gcc.h ****   \return             value of type uint8_t at (*ptr)
 761:Drivers/CMSIS/Include/cmsis_gcc.h ****  */
 762:Drivers/CMSIS/Include/cmsis_gcc.h **** __STATIC_FORCEINLINE uint8_t __LDAB(volatile uint8_t *ptr)
 763:Drivers/CMSIS/Include/cmsis_gcc.h **** {
 764:Drivers/CMSIS/Include/cmsis_gcc.h ****     uint32_t result;
 765:Drivers/CMSIS/Include/cmsis_gcc.h **** 
 766:Drivers/CMSIS/Include/cmsis_gcc.h ****    __ASM volatile ("ldab %0, %1" : "=r" (result) : "Q" (*ptr) : "memory" );
 767:Drivers/CMSIS/Include/cmsis_gcc.h ****    return ((uint8_t) result);
 768:Drivers/CMSIS/Include/cmsis_gcc.h **** }
 769:Drivers/CMSIS/Include/cmsis_gcc.h **** 
 770:Drivers/CMSIS/Include/cmsis_gcc.h **** 
 771:Drivers/CMSIS/Include/cmsis_gcc.h **** /**
 772:Drivers/CMSIS/Include/cmsis_gcc.h ****   \brief   Load-Acquire (16 bit)
 773:Drivers/CMSIS/Include/cmsis_gcc.h ****   \details Executes a LDAH instruction for 16 bit values.
 774:Drivers/CMSIS/Include/cmsis_gcc.h ****   \param [in]    ptr  Pointer to data
 775:Drivers/CMSIS/Include/cmsis_gcc.h ****   \return        value of type uint16_t at (*ptr)
 776:Drivers/CMSIS/Include/cmsis_gcc.h ****  */
 777:Drivers/CMSIS/Include/cmsis_gcc.h **** __STATIC_FORCEINLINE uint16_t __LDAH(volatile uint16_t *ptr)
 778:Drivers/CMSIS/Include/cmsis_gcc.h **** {
 779:Drivers/CMSIS/Include/cmsis_gcc.h ****     uint32_t result;
 780:Drivers/CMSIS/Include/cmsis_gcc.h **** 
 781:Drivers/CMSIS/Include/cmsis_gcc.h ****    __ASM volatile ("ldah %0, %1" : "=r" (result) : "Q" (*ptr) : "memory" );
 782:Drivers/CMSIS/Include/cmsis_gcc.h ****    return ((uint16_t) result);
 783:Drivers/CMSIS/Include/cmsis_gcc.h **** }
 784:Drivers/CMSIS/Include/cmsis_gcc.h **** 
 785:Drivers/CMSIS/Include/cmsis_gcc.h **** 
 786:Drivers/CMSIS/Include/cmsis_gcc.h **** /**
 787:Drivers/CMSIS/Include/cmsis_gcc.h ****   \brief   Load-Acquire (32 bit)
 788:Drivers/CMSIS/Include/cmsis_gcc.h ****   \details Executes a LDA instruction for 32 bit values.
 789:Drivers/CMSIS/Include/cmsis_gcc.h ****   \param [in]    ptr  Pointer to data
 790:Drivers/CMSIS/Include/cmsis_gcc.h ****   \return        value of type uint32_t at (*ptr)
 791:Drivers/CMSIS/Include/cmsis_gcc.h ****  */
 792:Drivers/CMSIS/Include/cmsis_gcc.h **** __STATIC_FORCEINLINE uint32_t __LDA(volatile uint32_t *ptr)
 793:Drivers/CMSIS/Include/cmsis_gcc.h **** {
 794:Drivers/CMSIS/Include/cmsis_gcc.h ****     uint32_t result;
 795:Drivers/CMSIS/Include/cmsis_gcc.h **** 
 796:Drivers/CMSIS/Include/cmsis_gcc.h ****    __ASM volatile ("lda %0, %1" : "=r" (result) : "Q" (*ptr) : "memory" );
 797:Drivers/CMSIS/Include/cmsis_gcc.h ****    return(result);
 798:Drivers/CMSIS/Include/cmsis_gcc.h **** }
 799:Drivers/CMSIS/Include/cmsis_gcc.h **** 
 800:Drivers/CMSIS/Include/cmsis_gcc.h **** 
 801:Drivers/CMSIS/Include/cmsis_gcc.h **** /**
 802:Drivers/CMSIS/Include/cmsis_gcc.h ****   \brief   Store-Release (8 bit)
 803:Drivers/CMSIS/Include/cmsis_gcc.h ****   \details Executes a STLB instruction for 8 bit values.
 804:Drivers/CMSIS/Include/cmsis_gcc.h ****   \param [in]  value  Value to store
 805:Drivers/CMSIS/Include/cmsis_gcc.h ****   \param [in]    ptr  Pointer to location
 806:Drivers/CMSIS/Include/cmsis_gcc.h ****  */
 807:Drivers/CMSIS/Include/cmsis_gcc.h **** __STATIC_FORCEINLINE void __STLB(uint8_t value, volatile uint8_t *ptr)
 808:Drivers/CMSIS/Include/cmsis_gcc.h **** {
ARM GAS  C:\Users\bulli\AppData\Local\Temp\ccgdAJmu.s 			page 40


 809:Drivers/CMSIS/Include/cmsis_gcc.h ****    __ASM volatile ("stlb %1, %0" : "=Q" (*ptr) : "r" ((uint32_t)value) : "memory" );
 810:Drivers/CMSIS/Include/cmsis_gcc.h **** }
 811:Drivers/CMSIS/Include/cmsis_gcc.h **** 
 812:Drivers/CMSIS/Include/cmsis_gcc.h **** 
 813:Drivers/CMSIS/Include/cmsis_gcc.h **** /**
 814:Drivers/CMSIS/Include/cmsis_gcc.h ****   \brief   Store-Release (16 bit)
 815:Drivers/CMSIS/Include/cmsis_gcc.h ****   \details Executes a STLH instruction for 16 bit values.
 816:Drivers/CMSIS/Include/cmsis_gcc.h ****   \param [in]  value  Value to store
 817:Drivers/CMSIS/Include/cmsis_gcc.h ****   \param [in]    ptr  Pointer to location
 818:Drivers/CMSIS/Include/cmsis_gcc.h ****  */
 819:Drivers/CMSIS/Include/cmsis_gcc.h **** __STATIC_FORCEINLINE void __STLH(uint16_t value, volatile uint16_t *ptr)
 820:Drivers/CMSIS/Include/cmsis_gcc.h **** {
 821:Drivers/CMSIS/Include/cmsis_gcc.h ****    __ASM volatile ("stlh %1, %0" : "=Q" (*ptr) : "r" ((uint32_t)value) : "memory" );
 822:Drivers/CMSIS/Include/cmsis_gcc.h **** }
 823:Drivers/CMSIS/Include/cmsis_gcc.h **** 
 824:Drivers/CMSIS/Include/cmsis_gcc.h **** 
 825:Drivers/CMSIS/Include/cmsis_gcc.h **** /**
 826:Drivers/CMSIS/Include/cmsis_gcc.h ****   \brief   Store-Release (32 bit)
 827:Drivers/CMSIS/Include/cmsis_gcc.h ****   \details Executes a STL instruction for 32 bit values.
 828:Drivers/CMSIS/Include/cmsis_gcc.h ****   \param [in]  value  Value to store
 829:Drivers/CMSIS/Include/cmsis_gcc.h ****   \param [in]    ptr  Pointer to location
 830:Drivers/CMSIS/Include/cmsis_gcc.h ****  */
 831:Drivers/CMSIS/Include/cmsis_gcc.h **** __STATIC_FORCEINLINE void __STL(uint32_t value, volatile uint32_t *ptr)
 832:Drivers/CMSIS/Include/cmsis_gcc.h **** {
 833:Drivers/CMSIS/Include/cmsis_gcc.h ****    __ASM volatile ("stl %1, %0" : "=Q" (*ptr) : "r" ((uint32_t)value) : "memory" );
 834:Drivers/CMSIS/Include/cmsis_gcc.h **** }
 835:Drivers/CMSIS/Include/cmsis_gcc.h **** 
 836:Drivers/CMSIS/Include/cmsis_gcc.h **** 
 837:Drivers/CMSIS/Include/cmsis_gcc.h **** /**
 838:Drivers/CMSIS/Include/cmsis_gcc.h ****   \brief   Load-Acquire Exclusive (8 bit)
 839:Drivers/CMSIS/Include/cmsis_gcc.h ****   \details Executes a LDAB exclusive instruction for 8 bit value.
 840:Drivers/CMSIS/Include/cmsis_gcc.h ****   \param [in]    ptr  Pointer to data
 841:Drivers/CMSIS/Include/cmsis_gcc.h ****   \return             value of type uint8_t at (*ptr)
 842:Drivers/CMSIS/Include/cmsis_gcc.h ****  */
 843:Drivers/CMSIS/Include/cmsis_gcc.h **** __STATIC_FORCEINLINE uint8_t __LDAEXB(volatile uint8_t *ptr)
 844:Drivers/CMSIS/Include/cmsis_gcc.h **** {
 845:Drivers/CMSIS/Include/cmsis_gcc.h ****     uint32_t result;
 846:Drivers/CMSIS/Include/cmsis_gcc.h **** 
 847:Drivers/CMSIS/Include/cmsis_gcc.h ****    __ASM volatile ("ldaexb %0, %1" : "=r" (result) : "Q" (*ptr) : "memory" );
 848:Drivers/CMSIS/Include/cmsis_gcc.h ****    return ((uint8_t) result);
 849:Drivers/CMSIS/Include/cmsis_gcc.h **** }
 850:Drivers/CMSIS/Include/cmsis_gcc.h **** 
 851:Drivers/CMSIS/Include/cmsis_gcc.h **** 
 852:Drivers/CMSIS/Include/cmsis_gcc.h **** /**
 853:Drivers/CMSIS/Include/cmsis_gcc.h ****   \brief   Load-Acquire Exclusive (16 bit)
 854:Drivers/CMSIS/Include/cmsis_gcc.h ****   \details Executes a LDAH exclusive instruction for 16 bit values.
 855:Drivers/CMSIS/Include/cmsis_gcc.h ****   \param [in]    ptr  Pointer to data
 856:Drivers/CMSIS/Include/cmsis_gcc.h ****   \return        value of type uint16_t at (*ptr)
 857:Drivers/CMSIS/Include/cmsis_gcc.h ****  */
 858:Drivers/CMSIS/Include/cmsis_gcc.h **** __STATIC_FORCEINLINE uint16_t __LDAEXH(volatile uint16_t *ptr)
 859:Drivers/CMSIS/Include/cmsis_gcc.h **** {
 860:Drivers/CMSIS/Include/cmsis_gcc.h ****     uint32_t result;
 861:Drivers/CMSIS/Include/cmsis_gcc.h **** 
 862:Drivers/CMSIS/Include/cmsis_gcc.h ****    __ASM volatile ("ldaexh %0, %1" : "=r" (result) : "Q" (*ptr) : "memory" );
 863:Drivers/CMSIS/Include/cmsis_gcc.h ****    return ((uint16_t) result);
 864:Drivers/CMSIS/Include/cmsis_gcc.h **** }
 865:Drivers/CMSIS/Include/cmsis_gcc.h **** 
ARM GAS  C:\Users\bulli\AppData\Local\Temp\ccgdAJmu.s 			page 41


 866:Drivers/CMSIS/Include/cmsis_gcc.h **** 
 867:Drivers/CMSIS/Include/cmsis_gcc.h **** /**
 868:Drivers/CMSIS/Include/cmsis_gcc.h ****   \brief   Load-Acquire Exclusive (32 bit)
 869:Drivers/CMSIS/Include/cmsis_gcc.h ****   \details Executes a LDA exclusive instruction for 32 bit values.
 870:Drivers/CMSIS/Include/cmsis_gcc.h ****   \param [in]    ptr  Pointer to data
 871:Drivers/CMSIS/Include/cmsis_gcc.h ****   \return        value of type uint32_t at (*ptr)
 872:Drivers/CMSIS/Include/cmsis_gcc.h ****  */
 873:Drivers/CMSIS/Include/cmsis_gcc.h **** __STATIC_FORCEINLINE uint32_t __LDAEX(volatile uint32_t *ptr)
 874:Drivers/CMSIS/Include/cmsis_gcc.h **** {
 875:Drivers/CMSIS/Include/cmsis_gcc.h ****     uint32_t result;
 876:Drivers/CMSIS/Include/cmsis_gcc.h **** 
 877:Drivers/CMSIS/Include/cmsis_gcc.h ****    __ASM volatile ("ldaex %0, %1" : "=r" (result) : "Q" (*ptr) : "memory" );
 878:Drivers/CMSIS/Include/cmsis_gcc.h ****    return(result);
 879:Drivers/CMSIS/Include/cmsis_gcc.h **** }
 880:Drivers/CMSIS/Include/cmsis_gcc.h **** 
 881:Drivers/CMSIS/Include/cmsis_gcc.h **** 
 882:Drivers/CMSIS/Include/cmsis_gcc.h **** /**
 883:Drivers/CMSIS/Include/cmsis_gcc.h ****   \brief   Store-Release Exclusive (8 bit)
 884:Drivers/CMSIS/Include/cmsis_gcc.h ****   \details Executes a STLB exclusive instruction for 8 bit values.
 885:Drivers/CMSIS/Include/cmsis_gcc.h ****   \param [in]  value  Value to store
 886:Drivers/CMSIS/Include/cmsis_gcc.h ****   \param [in]    ptr  Pointer to location
 887:Drivers/CMSIS/Include/cmsis_gcc.h ****   \return          0  Function succeeded
 888:Drivers/CMSIS/Include/cmsis_gcc.h ****   \return          1  Function failed
 889:Drivers/CMSIS/Include/cmsis_gcc.h ****  */
 890:Drivers/CMSIS/Include/cmsis_gcc.h **** __STATIC_FORCEINLINE uint32_t __STLEXB(uint8_t value, volatile uint8_t *ptr)
 891:Drivers/CMSIS/Include/cmsis_gcc.h **** {
 892:Drivers/CMSIS/Include/cmsis_gcc.h ****    uint32_t result;
 893:Drivers/CMSIS/Include/cmsis_gcc.h **** 
 894:Drivers/CMSIS/Include/cmsis_gcc.h ****    __ASM volatile ("stlexb %0, %2, %1" : "=&r" (result), "=Q" (*ptr) : "r" ((uint32_t)value) : "mem
 895:Drivers/CMSIS/Include/cmsis_gcc.h ****    return(result);
 896:Drivers/CMSIS/Include/cmsis_gcc.h **** }
 897:Drivers/CMSIS/Include/cmsis_gcc.h **** 
 898:Drivers/CMSIS/Include/cmsis_gcc.h **** 
 899:Drivers/CMSIS/Include/cmsis_gcc.h **** /**
 900:Drivers/CMSIS/Include/cmsis_gcc.h ****   \brief   Store-Release Exclusive (16 bit)
 901:Drivers/CMSIS/Include/cmsis_gcc.h ****   \details Executes a STLH exclusive instruction for 16 bit values.
 902:Drivers/CMSIS/Include/cmsis_gcc.h ****   \param [in]  value  Value to store
 903:Drivers/CMSIS/Include/cmsis_gcc.h ****   \param [in]    ptr  Pointer to location
 904:Drivers/CMSIS/Include/cmsis_gcc.h ****   \return          0  Function succeeded
 905:Drivers/CMSIS/Include/cmsis_gcc.h ****   \return          1  Function failed
 906:Drivers/CMSIS/Include/cmsis_gcc.h ****  */
 907:Drivers/CMSIS/Include/cmsis_gcc.h **** __STATIC_FORCEINLINE uint32_t __STLEXH(uint16_t value, volatile uint16_t *ptr)
 908:Drivers/CMSIS/Include/cmsis_gcc.h **** {
 909:Drivers/CMSIS/Include/cmsis_gcc.h ****    uint32_t result;
 910:Drivers/CMSIS/Include/cmsis_gcc.h **** 
 911:Drivers/CMSIS/Include/cmsis_gcc.h ****    __ASM volatile ("stlexh %0, %2, %1" : "=&r" (result), "=Q" (*ptr) : "r" ((uint32_t)value) : "mem
 912:Drivers/CMSIS/Include/cmsis_gcc.h ****    return(result);
 913:Drivers/CMSIS/Include/cmsis_gcc.h **** }
 914:Drivers/CMSIS/Include/cmsis_gcc.h **** 
 915:Drivers/CMSIS/Include/cmsis_gcc.h **** 
 916:Drivers/CMSIS/Include/cmsis_gcc.h **** /**
 917:Drivers/CMSIS/Include/cmsis_gcc.h ****   \brief   Store-Release Exclusive (32 bit)
 918:Drivers/CMSIS/Include/cmsis_gcc.h ****   \details Executes a STL exclusive instruction for 32 bit values.
 919:Drivers/CMSIS/Include/cmsis_gcc.h ****   \param [in]  value  Value to store
 920:Drivers/CMSIS/Include/cmsis_gcc.h ****   \param [in]    ptr  Pointer to location
 921:Drivers/CMSIS/Include/cmsis_gcc.h ****   \return          0  Function succeeded
 922:Drivers/CMSIS/Include/cmsis_gcc.h ****   \return          1  Function failed
ARM GAS  C:\Users\bulli\AppData\Local\Temp\ccgdAJmu.s 			page 42


 923:Drivers/CMSIS/Include/cmsis_gcc.h ****  */
 924:Drivers/CMSIS/Include/cmsis_gcc.h **** __STATIC_FORCEINLINE uint32_t __STLEX(uint32_t value, volatile uint32_t *ptr)
 925:Drivers/CMSIS/Include/cmsis_gcc.h **** {
 926:Drivers/CMSIS/Include/cmsis_gcc.h ****    uint32_t result;
 927:Drivers/CMSIS/Include/cmsis_gcc.h **** 
 928:Drivers/CMSIS/Include/cmsis_gcc.h ****    __ASM volatile ("stlex %0, %2, %1" : "=&r" (result), "=Q" (*ptr) : "r" ((uint32_t)value) : "memo
 929:Drivers/CMSIS/Include/cmsis_gcc.h ****    return(result);
 930:Drivers/CMSIS/Include/cmsis_gcc.h **** }
 931:Drivers/CMSIS/Include/cmsis_gcc.h **** 
 932:Drivers/CMSIS/Include/cmsis_gcc.h **** #endif /* ((defined (__ARM_ARCH_8M_MAIN__ ) && (__ARM_ARCH_8M_MAIN__ == 1)) || \
 933:Drivers/CMSIS/Include/cmsis_gcc.h ****            (defined (__ARM_ARCH_8M_BASE__ ) && (__ARM_ARCH_8M_BASE__ == 1))    ) */
 934:Drivers/CMSIS/Include/cmsis_gcc.h **** 
 935:Drivers/CMSIS/Include/cmsis_gcc.h **** /*@}*/ /* end of group CMSIS_Core_InstructionInterface */
 936:Drivers/CMSIS/Include/cmsis_gcc.h **** 
 937:Drivers/CMSIS/Include/cmsis_gcc.h **** 
 938:Drivers/CMSIS/Include/cmsis_gcc.h **** /* ###########################  Core Function Access  ########################### */
 939:Drivers/CMSIS/Include/cmsis_gcc.h **** /** \ingroup  CMSIS_Core_FunctionInterface
 940:Drivers/CMSIS/Include/cmsis_gcc.h ****     \defgroup CMSIS_Core_RegAccFunctions CMSIS Core Register Access Functions
 941:Drivers/CMSIS/Include/cmsis_gcc.h ****   @{
 942:Drivers/CMSIS/Include/cmsis_gcc.h ****  */
 943:Drivers/CMSIS/Include/cmsis_gcc.h **** 
 944:Drivers/CMSIS/Include/cmsis_gcc.h **** /**
 945:Drivers/CMSIS/Include/cmsis_gcc.h ****   \brief   Enable IRQ Interrupts
 946:Drivers/CMSIS/Include/cmsis_gcc.h ****   \details Enables IRQ interrupts by clearing special-purpose register PRIMASK.
 947:Drivers/CMSIS/Include/cmsis_gcc.h ****            Can only be executed in Privileged modes.
 948:Drivers/CMSIS/Include/cmsis_gcc.h ****  */
 949:Drivers/CMSIS/Include/cmsis_gcc.h **** __STATIC_FORCEINLINE void __enable_irq(void)
 950:Drivers/CMSIS/Include/cmsis_gcc.h **** {
 951:Drivers/CMSIS/Include/cmsis_gcc.h ****   __ASM volatile ("cpsie i" : : : "memory");
 952:Drivers/CMSIS/Include/cmsis_gcc.h **** }
 953:Drivers/CMSIS/Include/cmsis_gcc.h **** 
 954:Drivers/CMSIS/Include/cmsis_gcc.h **** 
 955:Drivers/CMSIS/Include/cmsis_gcc.h **** /**
 956:Drivers/CMSIS/Include/cmsis_gcc.h ****   \brief   Disable IRQ Interrupts
 957:Drivers/CMSIS/Include/cmsis_gcc.h ****   \details Disables IRQ interrupts by setting special-purpose register PRIMASK.
 958:Drivers/CMSIS/Include/cmsis_gcc.h ****            Can only be executed in Privileged modes.
 959:Drivers/CMSIS/Include/cmsis_gcc.h ****  */
 960:Drivers/CMSIS/Include/cmsis_gcc.h **** __STATIC_FORCEINLINE void __disable_irq(void)
 854              		.loc 2 960 27 view .LVU235
 855              	.LBB23:
 961:Drivers/CMSIS/Include/cmsis_gcc.h **** {
 962:Drivers/CMSIS/Include/cmsis_gcc.h ****   __ASM volatile ("cpsid i" : : : "memory");
 856              		.loc 2 962 3 view .LVU236
 857              		.syntax unified
 858              	@ 962 "Drivers/CMSIS/Include/cmsis_gcc.h" 1
 859 0000 72B6     		cpsid i
 860              	@ 0 "" 2
 861              		.thumb
 862              		.syntax unified
 863              	.L60:
 864              	.LBE23:
 865              	.LBE22:
 491:Core/Src/main.c ****   while (1)
 866              		.loc 1 491 3 view .LVU237
 492:Core/Src/main.c ****   {
 493:Core/Src/main.c ****   }
 867              		.loc 1 493 3 view .LVU238
ARM GAS  C:\Users\bulli\AppData\Local\Temp\ccgdAJmu.s 			page 43


 491:Core/Src/main.c ****   while (1)
 868              		.loc 1 491 9 view .LVU239
 869 0002 FEE7     		b	.L60
 870              		.cfi_endproc
 871              	.LFE146:
 873              		.section	.text.MX_USART2_UART_Init,"ax",%progbits
 874              		.align	1
 875              		.syntax unified
 876              		.thumb
 877              		.thumb_func
 879              	MX_USART2_UART_Init:
 880              	.LFB142:
 395:Core/Src/main.c **** 
 881              		.loc 1 395 1 view -0
 882              		.cfi_startproc
 883              		@ args = 0, pretend = 0, frame = 0
 884              		@ frame_needed = 0, uses_anonymous_args = 0
 885 0000 08B5     		push	{r3, lr}
 886              		.cfi_def_cfa_offset 8
 887              		.cfi_offset 3, -8
 888              		.cfi_offset 14, -4
 404:Core/Src/main.c ****   huart2.Init.BaudRate = 115200;
 889              		.loc 1 404 3 view .LVU241
 404:Core/Src/main.c ****   huart2.Init.BaudRate = 115200;
 890              		.loc 1 404 19 is_stmt 0 view .LVU242
 891 0002 0A48     		ldr	r0, .L65
 892 0004 0A4B     		ldr	r3, .L65+4
 893 0006 0360     		str	r3, [r0]
 405:Core/Src/main.c ****   huart2.Init.WordLength = UART_WORDLENGTH_8B;
 894              		.loc 1 405 3 is_stmt 1 view .LVU243
 405:Core/Src/main.c ****   huart2.Init.WordLength = UART_WORDLENGTH_8B;
 895              		.loc 1 405 24 is_stmt 0 view .LVU244
 896 0008 4FF4E133 		mov	r3, #115200
 897 000c 4360     		str	r3, [r0, #4]
 406:Core/Src/main.c ****   huart2.Init.StopBits = UART_STOPBITS_1;
 898              		.loc 1 406 3 is_stmt 1 view .LVU245
 406:Core/Src/main.c ****   huart2.Init.StopBits = UART_STOPBITS_1;
 899              		.loc 1 406 26 is_stmt 0 view .LVU246
 900 000e 0023     		movs	r3, #0
 901 0010 8360     		str	r3, [r0, #8]
 407:Core/Src/main.c ****   huart2.Init.Parity = UART_PARITY_NONE;
 902              		.loc 1 407 3 is_stmt 1 view .LVU247
 407:Core/Src/main.c ****   huart2.Init.Parity = UART_PARITY_NONE;
 903              		.loc 1 407 24 is_stmt 0 view .LVU248
 904 0012 C360     		str	r3, [r0, #12]
 408:Core/Src/main.c ****   huart2.Init.Mode = UART_MODE_TX_RX;
 905              		.loc 1 408 3 is_stmt 1 view .LVU249
 408:Core/Src/main.c ****   huart2.Init.Mode = UART_MODE_TX_RX;
 906              		.loc 1 408 22 is_stmt 0 view .LVU250
 907 0014 0361     		str	r3, [r0, #16]
 409:Core/Src/main.c ****   huart2.Init.HwFlowCtl = UART_HWCONTROL_NONE;
 908              		.loc 1 409 3 is_stmt 1 view .LVU251
 409:Core/Src/main.c ****   huart2.Init.HwFlowCtl = UART_HWCONTROL_NONE;
 909              		.loc 1 409 20 is_stmt 0 view .LVU252
 910 0016 0C22     		movs	r2, #12
 911 0018 4261     		str	r2, [r0, #20]
 410:Core/Src/main.c ****   huart2.Init.OverSampling = UART_OVERSAMPLING_16;
ARM GAS  C:\Users\bulli\AppData\Local\Temp\ccgdAJmu.s 			page 44


 912              		.loc 1 410 3 is_stmt 1 view .LVU253
 410:Core/Src/main.c ****   huart2.Init.OverSampling = UART_OVERSAMPLING_16;
 913              		.loc 1 410 25 is_stmt 0 view .LVU254
 914 001a 8361     		str	r3, [r0, #24]
 411:Core/Src/main.c ****   if (HAL_UART_Init(&huart2) != HAL_OK)
 915              		.loc 1 411 3 is_stmt 1 view .LVU255
 411:Core/Src/main.c ****   if (HAL_UART_Init(&huart2) != HAL_OK)
 916              		.loc 1 411 28 is_stmt 0 view .LVU256
 917 001c C361     		str	r3, [r0, #28]
 412:Core/Src/main.c ****   {
 918              		.loc 1 412 3 is_stmt 1 view .LVU257
 412:Core/Src/main.c ****   {
 919              		.loc 1 412 7 is_stmt 0 view .LVU258
 920 001e FFF7FEFF 		bl	HAL_UART_Init
 921              	.LVL49:
 412:Core/Src/main.c ****   {
 922              		.loc 1 412 6 discriminator 1 view .LVU259
 923 0022 00B9     		cbnz	r0, .L64
 420:Core/Src/main.c **** 
 924              		.loc 1 420 1 view .LVU260
 925 0024 08BD     		pop	{r3, pc}
 926              	.L64:
 414:Core/Src/main.c ****   }
 927              		.loc 1 414 5 is_stmt 1 view .LVU261
 928 0026 FFF7FEFF 		bl	Error_Handler
 929              	.LVL50:
 930              	.L66:
 931 002a 00BF     		.align	2
 932              	.L65:
 933 002c 00000000 		.word	huart2
 934 0030 00440040 		.word	1073759232
 935              		.cfi_endproc
 936              	.LFE142:
 938              		.section	.text.MX_TIM2_Init,"ax",%progbits
 939              		.align	1
 940              		.syntax unified
 941              		.thumb
 942              		.thumb_func
 944              	MX_TIM2_Init:
 945              	.LFB141:
 336:Core/Src/main.c **** 
 946              		.loc 1 336 1 view -0
 947              		.cfi_startproc
 948              		@ args = 0, pretend = 0, frame = 56
 949              		@ frame_needed = 0, uses_anonymous_args = 0
 950 0000 00B5     		push	{lr}
 951              		.cfi_def_cfa_offset 4
 952              		.cfi_offset 14, -4
 953 0002 8FB0     		sub	sp, sp, #60
 954              		.cfi_def_cfa_offset 64
 342:Core/Src/main.c ****   TIM_MasterConfigTypeDef sMasterConfig = {0};
 955              		.loc 1 342 3 view .LVU263
 342:Core/Src/main.c ****   TIM_MasterConfigTypeDef sMasterConfig = {0};
 956              		.loc 1 342 26 is_stmt 0 view .LVU264
 957 0004 0023     		movs	r3, #0
 958 0006 0A93     		str	r3, [sp, #40]
 959 0008 0B93     		str	r3, [sp, #44]
ARM GAS  C:\Users\bulli\AppData\Local\Temp\ccgdAJmu.s 			page 45


 960 000a 0C93     		str	r3, [sp, #48]
 961 000c 0D93     		str	r3, [sp, #52]
 343:Core/Src/main.c ****   TIM_OC_InitTypeDef sConfigOC = {0};
 962              		.loc 1 343 3 is_stmt 1 view .LVU265
 343:Core/Src/main.c ****   TIM_OC_InitTypeDef sConfigOC = {0};
 963              		.loc 1 343 27 is_stmt 0 view .LVU266
 964 000e 0893     		str	r3, [sp, #32]
 965 0010 0993     		str	r3, [sp, #36]
 344:Core/Src/main.c **** 
 966              		.loc 1 344 3 is_stmt 1 view .LVU267
 344:Core/Src/main.c **** 
 967              		.loc 1 344 22 is_stmt 0 view .LVU268
 968 0012 0193     		str	r3, [sp, #4]
 969 0014 0293     		str	r3, [sp, #8]
 970 0016 0393     		str	r3, [sp, #12]
 971 0018 0493     		str	r3, [sp, #16]
 972 001a 0593     		str	r3, [sp, #20]
 973 001c 0693     		str	r3, [sp, #24]
 974 001e 0793     		str	r3, [sp, #28]
 349:Core/Src/main.c ****   htim2.Init.Prescaler = 1679;
 975              		.loc 1 349 3 is_stmt 1 view .LVU269
 349:Core/Src/main.c ****   htim2.Init.Prescaler = 1679;
 976              		.loc 1 349 18 is_stmt 0 view .LVU270
 977 0020 1F48     		ldr	r0, .L79
 978 0022 4FF08042 		mov	r2, #1073741824
 979 0026 0260     		str	r2, [r0]
 350:Core/Src/main.c ****   htim2.Init.CounterMode = TIM_COUNTERMODE_UP;
 980              		.loc 1 350 3 is_stmt 1 view .LVU271
 350:Core/Src/main.c ****   htim2.Init.CounterMode = TIM_COUNTERMODE_UP;
 981              		.loc 1 350 24 is_stmt 0 view .LVU272
 982 0028 40F28F62 		movw	r2, #1679
 983 002c 4260     		str	r2, [r0, #4]
 351:Core/Src/main.c ****   htim2.Init.Period = 999;
 984              		.loc 1 351 3 is_stmt 1 view .LVU273
 351:Core/Src/main.c ****   htim2.Init.Period = 999;
 985              		.loc 1 351 26 is_stmt 0 view .LVU274
 986 002e 8360     		str	r3, [r0, #8]
 352:Core/Src/main.c ****   htim2.Init.ClockDivision = TIM_CLOCKDIVISION_DIV1;
 987              		.loc 1 352 3 is_stmt 1 view .LVU275
 352:Core/Src/main.c ****   htim2.Init.ClockDivision = TIM_CLOCKDIVISION_DIV1;
 988              		.loc 1 352 21 is_stmt 0 view .LVU276
 989 0030 40F2E732 		movw	r2, #999
 990 0034 C260     		str	r2, [r0, #12]
 353:Core/Src/main.c ****   htim2.Init.AutoReloadPreload = TIM_AUTORELOAD_PRELOAD_ENABLE;
 991              		.loc 1 353 3 is_stmt 1 view .LVU277
 353:Core/Src/main.c ****   htim2.Init.AutoReloadPreload = TIM_AUTORELOAD_PRELOAD_ENABLE;
 992              		.loc 1 353 28 is_stmt 0 view .LVU278
 993 0036 0361     		str	r3, [r0, #16]
 354:Core/Src/main.c ****   if (HAL_TIM_Base_Init(&htim2) != HAL_OK)
 994              		.loc 1 354 3 is_stmt 1 view .LVU279
 354:Core/Src/main.c ****   if (HAL_TIM_Base_Init(&htim2) != HAL_OK)
 995              		.loc 1 354 32 is_stmt 0 view .LVU280
 996 0038 8023     		movs	r3, #128
 997 003a 8361     		str	r3, [r0, #24]
 355:Core/Src/main.c ****   {
 998              		.loc 1 355 3 is_stmt 1 view .LVU281
 355:Core/Src/main.c ****   {
ARM GAS  C:\Users\bulli\AppData\Local\Temp\ccgdAJmu.s 			page 46


 999              		.loc 1 355 7 is_stmt 0 view .LVU282
 1000 003c FFF7FEFF 		bl	HAL_TIM_Base_Init
 1001              	.LVL51:
 355:Core/Src/main.c ****   {
 1002              		.loc 1 355 6 discriminator 1 view .LVU283
 1003 0040 18BB     		cbnz	r0, .L74
 359:Core/Src/main.c ****   if (HAL_TIM_ConfigClockSource(&htim2, &sClockSourceConfig) != HAL_OK)
 1004              		.loc 1 359 3 is_stmt 1 view .LVU284
 359:Core/Src/main.c ****   if (HAL_TIM_ConfigClockSource(&htim2, &sClockSourceConfig) != HAL_OK)
 1005              		.loc 1 359 34 is_stmt 0 view .LVU285
 1006 0042 4FF48053 		mov	r3, #4096
 1007 0046 0A93     		str	r3, [sp, #40]
 360:Core/Src/main.c ****   {
 1008              		.loc 1 360 3 is_stmt 1 view .LVU286
 360:Core/Src/main.c ****   {
 1009              		.loc 1 360 7 is_stmt 0 view .LVU287
 1010 0048 0AA9     		add	r1, sp, #40
 1011 004a 1548     		ldr	r0, .L79
 1012 004c FFF7FEFF 		bl	HAL_TIM_ConfigClockSource
 1013              	.LVL52:
 360:Core/Src/main.c ****   {
 1014              		.loc 1 360 6 discriminator 1 view .LVU288
 1015 0050 E8B9     		cbnz	r0, .L75
 364:Core/Src/main.c ****   {
 1016              		.loc 1 364 3 is_stmt 1 view .LVU289
 364:Core/Src/main.c ****   {
 1017              		.loc 1 364 7 is_stmt 0 view .LVU290
 1018 0052 1348     		ldr	r0, .L79
 1019 0054 FFF7FEFF 		bl	HAL_TIM_PWM_Init
 1020              	.LVL53:
 364:Core/Src/main.c ****   {
 1021              		.loc 1 364 6 discriminator 1 view .LVU291
 1022 0058 D8B9     		cbnz	r0, .L76
 368:Core/Src/main.c ****   sMasterConfig.MasterSlaveMode = TIM_MASTERSLAVEMODE_DISABLE;
 1023              		.loc 1 368 3 is_stmt 1 view .LVU292
 368:Core/Src/main.c ****   sMasterConfig.MasterSlaveMode = TIM_MASTERSLAVEMODE_DISABLE;
 1024              		.loc 1 368 37 is_stmt 0 view .LVU293
 1025 005a 0890     		str	r0, [sp, #32]
 369:Core/Src/main.c ****   if (HAL_TIMEx_MasterConfigSynchronization(&htim2, &sMasterConfig) != HAL_OK)
 1026              		.loc 1 369 3 is_stmt 1 view .LVU294
 369:Core/Src/main.c ****   if (HAL_TIMEx_MasterConfigSynchronization(&htim2, &sMasterConfig) != HAL_OK)
 1027              		.loc 1 369 33 is_stmt 0 view .LVU295
 1028 005c 0990     		str	r0, [sp, #36]
 370:Core/Src/main.c ****   {
 1029              		.loc 1 370 3 is_stmt 1 view .LVU296
 370:Core/Src/main.c ****   {
 1030              		.loc 1 370 7 is_stmt 0 view .LVU297
 1031 005e 08A9     		add	r1, sp, #32
 1032 0060 0F48     		ldr	r0, .L79
 1033 0062 FFF7FEFF 		bl	HAL_TIMEx_MasterConfigSynchronization
 1034              	.LVL54:
 370:Core/Src/main.c ****   {
 1035              		.loc 1 370 6 discriminator 1 view .LVU298
 1036 0066 B0B9     		cbnz	r0, .L77
 374:Core/Src/main.c ****   sConfigOC.Pulse = 75;
 1037              		.loc 1 374 3 is_stmt 1 view .LVU299
 374:Core/Src/main.c ****   sConfigOC.Pulse = 75;
ARM GAS  C:\Users\bulli\AppData\Local\Temp\ccgdAJmu.s 			page 47


 1038              		.loc 1 374 20 is_stmt 0 view .LVU300
 1039 0068 6023     		movs	r3, #96
 1040 006a 0193     		str	r3, [sp, #4]
 375:Core/Src/main.c ****   sConfigOC.OCPolarity = TIM_OCPOLARITY_HIGH;
 1041              		.loc 1 375 3 is_stmt 1 view .LVU301
 375:Core/Src/main.c ****   sConfigOC.OCPolarity = TIM_OCPOLARITY_HIGH;
 1042              		.loc 1 375 19 is_stmt 0 view .LVU302
 1043 006c 4B23     		movs	r3, #75
 1044 006e 0293     		str	r3, [sp, #8]
 376:Core/Src/main.c ****   sConfigOC.OCFastMode = TIM_OCFAST_DISABLE;
 1045              		.loc 1 376 3 is_stmt 1 view .LVU303
 376:Core/Src/main.c ****   sConfigOC.OCFastMode = TIM_OCFAST_DISABLE;
 1046              		.loc 1 376 24 is_stmt 0 view .LVU304
 1047 0070 0246     		mov	r2, r0
 1048 0072 0390     		str	r0, [sp, #12]
 377:Core/Src/main.c ****   if (HAL_TIM_PWM_ConfigChannel(&htim2, &sConfigOC, TIM_CHANNEL_1) != HAL_OK)
 1049              		.loc 1 377 3 is_stmt 1 view .LVU305
 377:Core/Src/main.c ****   if (HAL_TIM_PWM_ConfigChannel(&htim2, &sConfigOC, TIM_CHANNEL_1) != HAL_OK)
 1050              		.loc 1 377 24 is_stmt 0 view .LVU306
 1051 0074 0590     		str	r0, [sp, #20]
 378:Core/Src/main.c ****   {
 1052              		.loc 1 378 3 is_stmt 1 view .LVU307
 378:Core/Src/main.c ****   {
 1053              		.loc 1 378 7 is_stmt 0 view .LVU308
 1054 0076 01A9     		add	r1, sp, #4
 1055 0078 0948     		ldr	r0, .L79
 1056 007a FFF7FEFF 		bl	HAL_TIM_PWM_ConfigChannel
 1057              	.LVL55:
 378:Core/Src/main.c ****   {
 1058              		.loc 1 378 6 discriminator 1 view .LVU309
 1059 007e 60B9     		cbnz	r0, .L78
 385:Core/Src/main.c **** 
 1060              		.loc 1 385 3 is_stmt 1 view .LVU310
 1061 0080 0748     		ldr	r0, .L79
 1062 0082 FFF7FEFF 		bl	HAL_TIM_MspPostInit
 1063              	.LVL56:
 387:Core/Src/main.c **** 
 1064              		.loc 1 387 1 is_stmt 0 view .LVU311
 1065 0086 0FB0     		add	sp, sp, #60
 1066              		.cfi_remember_state
 1067              		.cfi_def_cfa_offset 4
 1068              		@ sp needed
 1069 0088 00BD     		pop	{pc}
 1070              	.L74:
 1071              		.cfi_restore_state
 357:Core/Src/main.c ****   }
 1072              		.loc 1 357 5 is_stmt 1 view .LVU312
 1073 008a FFF7FEFF 		bl	Error_Handler
 1074              	.LVL57:
 1075              	.L75:
 362:Core/Src/main.c ****   }
 1076              		.loc 1 362 5 view .LVU313
 1077 008e FFF7FEFF 		bl	Error_Handler
 1078              	.LVL58:
 1079              	.L76:
 366:Core/Src/main.c ****   }
 1080              		.loc 1 366 5 view .LVU314
ARM GAS  C:\Users\bulli\AppData\Local\Temp\ccgdAJmu.s 			page 48


 1081 0092 FFF7FEFF 		bl	Error_Handler
 1082              	.LVL59:
 1083              	.L77:
 372:Core/Src/main.c ****   }
 1084              		.loc 1 372 5 view .LVU315
 1085 0096 FFF7FEFF 		bl	Error_Handler
 1086              	.LVL60:
 1087              	.L78:
 380:Core/Src/main.c ****   }
 1088              		.loc 1 380 5 view .LVU316
 1089 009a FFF7FEFF 		bl	Error_Handler
 1090              	.LVL61:
 1091              	.L80:
 1092 009e 00BF     		.align	2
 1093              	.L79:
 1094 00a0 00000000 		.word	htim2
 1095              		.cfi_endproc
 1096              	.LFE141:
 1098              		.section	.text.SystemClock_Config,"ax",%progbits
 1099              		.align	1
 1100              		.global	SystemClock_Config
 1101              		.syntax unified
 1102              		.thumb
 1103              		.thumb_func
 1105              	SystemClock_Config:
 1106              	.LFB140:
 290:Core/Src/main.c ****   RCC_OscInitTypeDef RCC_OscInitStruct = {0};
 1107              		.loc 1 290 1 view -0
 1108              		.cfi_startproc
 1109              		@ args = 0, pretend = 0, frame = 80
 1110              		@ frame_needed = 0, uses_anonymous_args = 0
 1111 0000 10B5     		push	{r4, lr}
 1112              		.cfi_def_cfa_offset 8
 1113              		.cfi_offset 4, -8
 1114              		.cfi_offset 14, -4
 1115 0002 94B0     		sub	sp, sp, #80
 1116              		.cfi_def_cfa_offset 88
 291:Core/Src/main.c ****   RCC_ClkInitTypeDef RCC_ClkInitStruct = {0};
 1117              		.loc 1 291 3 view .LVU318
 291:Core/Src/main.c ****   RCC_ClkInitTypeDef RCC_ClkInitStruct = {0};
 1118              		.loc 1 291 22 is_stmt 0 view .LVU319
 1119 0004 08AC     		add	r4, sp, #32
 1120 0006 3022     		movs	r2, #48
 1121 0008 0021     		movs	r1, #0
 1122 000a 2046     		mov	r0, r4
 1123 000c FFF7FEFF 		bl	memset
 1124              	.LVL62:
 292:Core/Src/main.c **** 
 1125              		.loc 1 292 3 is_stmt 1 view .LVU320
 292:Core/Src/main.c **** 
 1126              		.loc 1 292 22 is_stmt 0 view .LVU321
 1127 0010 0023     		movs	r3, #0
 1128 0012 0393     		str	r3, [sp, #12]
 1129 0014 0493     		str	r3, [sp, #16]
 1130 0016 0593     		str	r3, [sp, #20]
 1131 0018 0693     		str	r3, [sp, #24]
 1132 001a 0793     		str	r3, [sp, #28]
ARM GAS  C:\Users\bulli\AppData\Local\Temp\ccgdAJmu.s 			page 49


 296:Core/Src/main.c ****   __HAL_PWR_VOLTAGESCALING_CONFIG(PWR_REGULATOR_VOLTAGE_SCALE2);
 1133              		.loc 1 296 3 is_stmt 1 view .LVU322
 1134              	.LBB24:
 296:Core/Src/main.c ****   __HAL_PWR_VOLTAGESCALING_CONFIG(PWR_REGULATOR_VOLTAGE_SCALE2);
 1135              		.loc 1 296 3 view .LVU323
 1136 001c 0193     		str	r3, [sp, #4]
 296:Core/Src/main.c ****   __HAL_PWR_VOLTAGESCALING_CONFIG(PWR_REGULATOR_VOLTAGE_SCALE2);
 1137              		.loc 1 296 3 view .LVU324
 1138 001e 1F4A     		ldr	r2, .L87
 1139 0020 116C     		ldr	r1, [r2, #64]
 1140 0022 41F08051 		orr	r1, r1, #268435456
 1141 0026 1164     		str	r1, [r2, #64]
 296:Core/Src/main.c ****   __HAL_PWR_VOLTAGESCALING_CONFIG(PWR_REGULATOR_VOLTAGE_SCALE2);
 1142              		.loc 1 296 3 view .LVU325
 1143 0028 126C     		ldr	r2, [r2, #64]
 1144 002a 02F08052 		and	r2, r2, #268435456
 1145 002e 0192     		str	r2, [sp, #4]
 296:Core/Src/main.c ****   __HAL_PWR_VOLTAGESCALING_CONFIG(PWR_REGULATOR_VOLTAGE_SCALE2);
 1146              		.loc 1 296 3 view .LVU326
 1147 0030 019A     		ldr	r2, [sp, #4]
 1148              	.LBE24:
 296:Core/Src/main.c ****   __HAL_PWR_VOLTAGESCALING_CONFIG(PWR_REGULATOR_VOLTAGE_SCALE2);
 1149              		.loc 1 296 3 view .LVU327
 297:Core/Src/main.c **** 
 1150              		.loc 1 297 3 view .LVU328
 1151              	.LBB25:
 297:Core/Src/main.c **** 
 1152              		.loc 1 297 3 view .LVU329
 1153 0032 0293     		str	r3, [sp, #8]
 297:Core/Src/main.c **** 
 1154              		.loc 1 297 3 view .LVU330
 1155 0034 1A4A     		ldr	r2, .L87+4
 1156 0036 1368     		ldr	r3, [r2]
 1157 0038 23F44043 		bic	r3, r3, #49152
 1158 003c 43F40043 		orr	r3, r3, #32768
 1159 0040 1360     		str	r3, [r2]
 297:Core/Src/main.c **** 
 1160              		.loc 1 297 3 view .LVU331
 1161 0042 1368     		ldr	r3, [r2]
 1162 0044 03F44043 		and	r3, r3, #49152
 1163 0048 0293     		str	r3, [sp, #8]
 297:Core/Src/main.c **** 
 1164              		.loc 1 297 3 view .LVU332
 1165 004a 029B     		ldr	r3, [sp, #8]
 1166              	.LBE25:
 297:Core/Src/main.c **** 
 1167              		.loc 1 297 3 view .LVU333
 302:Core/Src/main.c ****   RCC_OscInitStruct.HSEState = RCC_HSE_BYPASS;
 1168              		.loc 1 302 3 view .LVU334
 302:Core/Src/main.c ****   RCC_OscInitStruct.HSEState = RCC_HSE_BYPASS;
 1169              		.loc 1 302 36 is_stmt 0 view .LVU335
 1170 004c 0123     		movs	r3, #1
 1171 004e 0893     		str	r3, [sp, #32]
 303:Core/Src/main.c ****   RCC_OscInitStruct.PLL.PLLState = RCC_PLL_ON;
 1172              		.loc 1 303 3 is_stmt 1 view .LVU336
 303:Core/Src/main.c ****   RCC_OscInitStruct.PLL.PLLState = RCC_PLL_ON;
 1173              		.loc 1 303 30 is_stmt 0 view .LVU337
ARM GAS  C:\Users\bulli\AppData\Local\Temp\ccgdAJmu.s 			page 50


 1174 0050 4FF4A023 		mov	r3, #327680
 1175 0054 0993     		str	r3, [sp, #36]
 304:Core/Src/main.c ****   RCC_OscInitStruct.PLL.PLLSource = RCC_PLLSOURCE_HSE;
 1176              		.loc 1 304 3 is_stmt 1 view .LVU338
 304:Core/Src/main.c ****   RCC_OscInitStruct.PLL.PLLSource = RCC_PLLSOURCE_HSE;
 1177              		.loc 1 304 34 is_stmt 0 view .LVU339
 1178 0056 0223     		movs	r3, #2
 1179 0058 0E93     		str	r3, [sp, #56]
 305:Core/Src/main.c ****   RCC_OscInitStruct.PLL.PLLM = 4;
 1180              		.loc 1 305 3 is_stmt 1 view .LVU340
 305:Core/Src/main.c ****   RCC_OscInitStruct.PLL.PLLM = 4;
 1181              		.loc 1 305 35 is_stmt 0 view .LVU341
 1182 005a 4FF48002 		mov	r2, #4194304
 1183 005e 0F92     		str	r2, [sp, #60]
 306:Core/Src/main.c ****   RCC_OscInitStruct.PLL.PLLN = 84;
 1184              		.loc 1 306 3 is_stmt 1 view .LVU342
 306:Core/Src/main.c ****   RCC_OscInitStruct.PLL.PLLN = 84;
 1185              		.loc 1 306 30 is_stmt 0 view .LVU343
 1186 0060 0422     		movs	r2, #4
 1187 0062 1092     		str	r2, [sp, #64]
 307:Core/Src/main.c ****   RCC_OscInitStruct.PLL.PLLP = RCC_PLLP_DIV2;
 1188              		.loc 1 307 3 is_stmt 1 view .LVU344
 307:Core/Src/main.c ****   RCC_OscInitStruct.PLL.PLLP = RCC_PLLP_DIV2;
 1189              		.loc 1 307 30 is_stmt 0 view .LVU345
 1190 0064 5422     		movs	r2, #84
 1191 0066 1192     		str	r2, [sp, #68]
 308:Core/Src/main.c ****   RCC_OscInitStruct.PLL.PLLQ = 7;
 1192              		.loc 1 308 3 is_stmt 1 view .LVU346
 308:Core/Src/main.c ****   RCC_OscInitStruct.PLL.PLLQ = 7;
 1193              		.loc 1 308 30 is_stmt 0 view .LVU347
 1194 0068 1293     		str	r3, [sp, #72]
 309:Core/Src/main.c ****   if (HAL_RCC_OscConfig(&RCC_OscInitStruct) != HAL_OK)
 1195              		.loc 1 309 3 is_stmt 1 view .LVU348
 309:Core/Src/main.c ****   if (HAL_RCC_OscConfig(&RCC_OscInitStruct) != HAL_OK)
 1196              		.loc 1 309 30 is_stmt 0 view .LVU349
 1197 006a 0723     		movs	r3, #7
 1198 006c 1393     		str	r3, [sp, #76]
 310:Core/Src/main.c ****   {
 1199              		.loc 1 310 3 is_stmt 1 view .LVU350
 310:Core/Src/main.c ****   {
 1200              		.loc 1 310 7 is_stmt 0 view .LVU351
 1201 006e 2046     		mov	r0, r4
 1202 0070 FFF7FEFF 		bl	HAL_RCC_OscConfig
 1203              	.LVL63:
 310:Core/Src/main.c ****   {
 1204              		.loc 1 310 6 discriminator 1 view .LVU352
 1205 0074 70B9     		cbnz	r0, .L85
 317:Core/Src/main.c ****                               |RCC_CLOCKTYPE_PCLK1|RCC_CLOCKTYPE_PCLK2;
 1206              		.loc 1 317 3 is_stmt 1 view .LVU353
 317:Core/Src/main.c ****                               |RCC_CLOCKTYPE_PCLK1|RCC_CLOCKTYPE_PCLK2;
 1207              		.loc 1 317 31 is_stmt 0 view .LVU354
 1208 0076 0F23     		movs	r3, #15
 1209 0078 0393     		str	r3, [sp, #12]
 319:Core/Src/main.c ****   RCC_ClkInitStruct.AHBCLKDivider = RCC_SYSCLK_DIV1;
 1210              		.loc 1 319 3 is_stmt 1 view .LVU355
 319:Core/Src/main.c ****   RCC_ClkInitStruct.AHBCLKDivider = RCC_SYSCLK_DIV1;
 1211              		.loc 1 319 34 is_stmt 0 view .LVU356
ARM GAS  C:\Users\bulli\AppData\Local\Temp\ccgdAJmu.s 			page 51


 1212 007a 0221     		movs	r1, #2
 1213 007c 0491     		str	r1, [sp, #16]
 320:Core/Src/main.c ****   RCC_ClkInitStruct.APB1CLKDivider = RCC_HCLK_DIV2;
 1214              		.loc 1 320 3 is_stmt 1 view .LVU357
 320:Core/Src/main.c ****   RCC_ClkInitStruct.APB1CLKDivider = RCC_HCLK_DIV2;
 1215              		.loc 1 320 35 is_stmt 0 view .LVU358
 1216 007e 0590     		str	r0, [sp, #20]
 321:Core/Src/main.c ****   RCC_ClkInitStruct.APB2CLKDivider = RCC_HCLK_DIV1;
 1217              		.loc 1 321 3 is_stmt 1 view .LVU359
 321:Core/Src/main.c ****   RCC_ClkInitStruct.APB2CLKDivider = RCC_HCLK_DIV1;
 1218              		.loc 1 321 36 is_stmt 0 view .LVU360
 1219 0080 4FF48052 		mov	r2, #4096
 1220 0084 0692     		str	r2, [sp, #24]
 322:Core/Src/main.c **** 
 1221              		.loc 1 322 3 is_stmt 1 view .LVU361
 322:Core/Src/main.c **** 
 1222              		.loc 1 322 36 is_stmt 0 view .LVU362
 1223 0086 0790     		str	r0, [sp, #28]
 324:Core/Src/main.c ****   {
 1224              		.loc 1 324 3 is_stmt 1 view .LVU363
 324:Core/Src/main.c ****   {
 1225              		.loc 1 324 7 is_stmt 0 view .LVU364
 1226 0088 03A8     		add	r0, sp, #12
 1227 008a FFF7FEFF 		bl	HAL_RCC_ClockConfig
 1228              	.LVL64:
 324:Core/Src/main.c ****   {
 1229              		.loc 1 324 6 discriminator 1 view .LVU365
 1230 008e 18B9     		cbnz	r0, .L86
 328:Core/Src/main.c **** 
 1231              		.loc 1 328 1 view .LVU366
 1232 0090 14B0     		add	sp, sp, #80
 1233              		.cfi_remember_state
 1234              		.cfi_def_cfa_offset 8
 1235              		@ sp needed
 1236 0092 10BD     		pop	{r4, pc}
 1237              	.L85:
 1238              		.cfi_restore_state
 312:Core/Src/main.c ****   }
 1239              		.loc 1 312 5 is_stmt 1 view .LVU367
 1240 0094 FFF7FEFF 		bl	Error_Handler
 1241              	.LVL65:
 1242              	.L86:
 326:Core/Src/main.c ****   }
 1243              		.loc 1 326 5 view .LVU368
 1244 0098 FFF7FEFF 		bl	Error_Handler
 1245              	.LVL66:
 1246              	.L88:
 1247              		.align	2
 1248              	.L87:
 1249 009c 00380240 		.word	1073887232
 1250 00a0 00700040 		.word	1073770496
 1251              		.cfi_endproc
 1252              	.LFE140:
 1254              		.section	.text.main,"ax",%progbits
 1255              		.align	1
 1256              		.global	main
 1257              		.syntax unified
ARM GAS  C:\Users\bulli\AppData\Local\Temp\ccgdAJmu.s 			page 52


 1258              		.thumb
 1259              		.thumb_func
 1261              	main:
 1262              	.LFB139:
 215:Core/Src/main.c **** 
 1263              		.loc 1 215 1 view -0
 1264              		.cfi_startproc
 1265              		@ args = 0, pretend = 0, frame = 8
 1266              		@ frame_needed = 0, uses_anonymous_args = 0
 1267 0000 10B5     		push	{r4, lr}
 1268              		.cfi_def_cfa_offset 8
 1269              		.cfi_offset 4, -8
 1270              		.cfi_offset 14, -4
 1271 0002 82B0     		sub	sp, sp, #8
 1272              		.cfi_def_cfa_offset 16
 224:Core/Src/main.c **** 
 1273              		.loc 1 224 3 view .LVU370
 1274 0004 FFF7FEFF 		bl	HAL_Init
 1275              	.LVL67:
 231:Core/Src/main.c **** 
 1276              		.loc 1 231 3 view .LVU371
 1277 0008 FFF7FEFF 		bl	SystemClock_Config
 1278              	.LVL68:
 238:Core/Src/main.c ****   MX_USART2_UART_Init();
 1279              		.loc 1 238 3 view .LVU372
 1280 000c FFF7FEFF 		bl	MX_GPIO_Init
 1281              	.LVL69:
 239:Core/Src/main.c ****   MX_TIM2_Init();
 1282              		.loc 1 239 3 view .LVU373
 1283 0010 FFF7FEFF 		bl	MX_USART2_UART_Init
 1284              	.LVL70:
 240:Core/Src/main.c ****   /* USER CODE BEGIN 2 */
 1285              		.loc 1 240 3 view .LVU374
 1286 0014 FFF7FEFF 		bl	MX_TIM2_Init
 1287              	.LVL71:
 242:Core/Src/main.c **** 
 1288              		.loc 1 242 3 view .LVU375
 1289 0018 0122     		movs	r2, #1
 1290 001a 2149     		ldr	r1, .L99
 1291 001c 2148     		ldr	r0, .L99+4
 1292 001e FFF7FEFF 		bl	HAL_UART_Receive_IT
 1293              	.LVL72:
 245:Core/Src/main.c ****   HAL_TIM_PWM_Start(&htim2, TIM_CHANNEL_1);
 1294              		.loc 1 245 3 view .LVU376
 246:Core/Src/main.c **** 
 1295              		.loc 1 246 3 view .LVU377
 1296 0022 0021     		movs	r1, #0
 1297 0024 2048     		ldr	r0, .L99+8
 1298 0026 FFF7FEFF 		bl	HAL_TIM_PWM_Start
 1299              	.LVL73:
 249:Core/Src/main.c ****   /* USER CODE END 2 */
 1300              		.loc 1 249 3 view .LVU378
 1301 002a 4FF48060 		mov	r0, #1024
 1302 002e FFF7FEFF 		bl	update_servo_pwm
 1303              	.LVL74:
 1304 0032 03E0     		b	.L90
 1305              	.L91:
ARM GAS  C:\Users\bulli\AppData\Local\Temp\ccgdAJmu.s 			page 53


 1306              	.LBB26:
 261:Core/Src/main.c **** 
 1307              		.loc 1 261 24 discriminator 4 view .LVU379
 1308 0034 9DF80700 		ldrb	r0, [sp, #7]	@ zero_extendqisi2
 1309 0038 FFF7FEFF 		bl	parser_feed
 1310              	.LVL75:
 1311              	.L90:
 261:Core/Src/main.c **** 
 1312              		.loc 1 261 12 discriminator 2 view .LVU380
 1313 003c 0DF10700 		add	r0, sp, #7
 1314 0040 FFF7FEFF 		bl	rb_pop
 1315              	.LVL76:
 261:Core/Src/main.c **** 
 1316              		.loc 1 261 12 is_stmt 0 discriminator 3 view .LVU381
 1317 0044 0028     		cmp	r0, #0
 1318 0046 F5D1     		bne	.L91
 264:Core/Src/main.c ****     if (rc.link_ok && (now - rc.last_frame_tick) > FAILSAFE_MS) {
 1319              		.loc 1 264 5 is_stmt 1 view .LVU382
 264:Core/Src/main.c ****     if (rc.link_ok && (now - rc.last_frame_tick) > FAILSAFE_MS) {
 1320              		.loc 1 264 20 is_stmt 0 view .LVU383
 1321 0048 FFF7FEFF 		bl	HAL_GetTick
 1322              	.LVL77:
 1323 004c 0446     		mov	r4, r0
 1324              	.LVL78:
 265:Core/Src/main.c ****         rc.link_ok = 0;
 1325              		.loc 1 265 5 is_stmt 1 view .LVU384
 265:Core/Src/main.c ****         rc.link_ok = 0;
 1326              		.loc 1 265 11 is_stmt 0 view .LVU385
 1327 004e 174B     		ldr	r3, .L99+12
 1328 0050 1B7B     		ldrb	r3, [r3, #12]	@ zero_extendqisi2
 265:Core/Src/main.c ****         rc.link_ok = 0;
 1329              		.loc 1 265 8 view .LVU386
 1330 0052 23B1     		cbz	r3, .L92
 265:Core/Src/main.c ****         rc.link_ok = 0;
 1331              		.loc 1 265 32 discriminator 1 view .LVU387
 1332 0054 154B     		ldr	r3, .L99+12
 1333 0056 9B68     		ldr	r3, [r3, #8]
 265:Core/Src/main.c ****         rc.link_ok = 0;
 1334              		.loc 1 265 28 discriminator 1 view .LVU388
 1335 0058 C31A     		subs	r3, r0, r3
 265:Core/Src/main.c ****         rc.link_ok = 0;
 1336              		.loc 1 265 20 discriminator 1 view .LVU389
 1337 005a C82B     		cmp	r3, #200
 1338 005c 0ED8     		bhi	.L97
 1339              	.LVL79:
 1340              	.L92:
 272:Core/Src/main.c ****         HAL_GPIO_WritePin(LD2_GPIO_Port, LD2_Pin, GPIO_PIN_SET);
 1341              		.loc 1 272 5 is_stmt 1 view .LVU390
 272:Core/Src/main.c ****         HAL_GPIO_WritePin(LD2_GPIO_Port, LD2_Pin, GPIO_PIN_SET);
 1342              		.loc 1 272 11 is_stmt 0 view .LVU391
 1343 005e 134B     		ldr	r3, .L99+12
 1344 0060 1B7B     		ldrb	r3, [r3, #12]	@ zero_extendqisi2
 272:Core/Src/main.c ****         HAL_GPIO_WritePin(LD2_GPIO_Port, LD2_Pin, GPIO_PIN_SET);
 1345              		.loc 1 272 8 view .LVU392
 1346 0062 BBB9     		cbnz	r3, .L98
 1347              	.LBB27:
 275:Core/Src/main.c ****         if ((now - last_toggle) >= HEARTBEAT_MS) {
ARM GAS  C:\Users\bulli\AppData\Local\Temp\ccgdAJmu.s 			page 54


 1348              		.loc 1 275 9 is_stmt 1 view .LVU393
 276:Core/Src/main.c ****             HAL_GPIO_TogglePin(LD2_GPIO_Port, LD2_Pin);
 1349              		.loc 1 276 9 view .LVU394
 276:Core/Src/main.c ****             HAL_GPIO_TogglePin(LD2_GPIO_Port, LD2_Pin);
 1350              		.loc 1 276 18 is_stmt 0 view .LVU395
 1351 0064 124B     		ldr	r3, .L99+16
 1352 0066 1B68     		ldr	r3, [r3]
 1353 0068 E31A     		subs	r3, r4, r3
 276:Core/Src/main.c ****             HAL_GPIO_TogglePin(LD2_GPIO_Port, LD2_Pin);
 1354              		.loc 1 276 12 view .LVU396
 1355 006a F92B     		cmp	r3, #249
 1356 006c E6D9     		bls	.L90
 277:Core/Src/main.c ****             last_toggle = now;
 1357              		.loc 1 277 13 is_stmt 1 view .LVU397
 1358 006e 2021     		movs	r1, #32
 1359 0070 1048     		ldr	r0, .L99+20
 1360 0072 FFF7FEFF 		bl	HAL_GPIO_TogglePin
 1361              	.LVL80:
 278:Core/Src/main.c ****         }
 1362              		.loc 1 278 13 view .LVU398
 278:Core/Src/main.c ****         }
 1363              		.loc 1 278 25 is_stmt 0 view .LVU399
 1364 0076 0E4B     		ldr	r3, .L99+16
 1365 0078 1C60     		str	r4, [r3]
 1366              	.LBE27:
 1367              	.LBE26:
 254:Core/Src/main.c ****   {
 1368              		.loc 1 254 9 is_stmt 1 view .LVU400
 255:Core/Src/main.c ****     /* USER CODE END WHILE */
 1369              		.loc 1 255 3 is_stmt 0 view .LVU401
 1370 007a DFE7     		b	.L90
 1371              	.LVL81:
 1372              	.L97:
 1373              	.LBB28:
 266:Core/Src/main.c ****         rc.ch1 = rc.ch2 = rc.ch3 = rc.ch4 = FAILSAFE_CENTER;
 1374              		.loc 1 266 9 is_stmt 1 view .LVU402
 266:Core/Src/main.c ****         rc.ch1 = rc.ch2 = rc.ch3 = rc.ch4 = FAILSAFE_CENTER;
 1375              		.loc 1 266 20 is_stmt 0 view .LVU403
 1376 007c 0B4B     		ldr	r3, .L99+12
 1377 007e 0022     		movs	r2, #0
 1378 0080 1A73     		strb	r2, [r3, #12]
 267:Core/Src/main.c ****         update_servo_pwm(FAILSAFE_CENTER);  /* move to failsafe position */
 1379              		.loc 1 267 9 is_stmt 1 view .LVU404
 267:Core/Src/main.c ****         update_servo_pwm(FAILSAFE_CENTER);  /* move to failsafe position */
 1380              		.loc 1 267 43 is_stmt 0 view .LVU405
 1381 0082 4FF48060 		mov	r0, #1024
 1382              	.LVL82:
 267:Core/Src/main.c ****         update_servo_pwm(FAILSAFE_CENTER);  /* move to failsafe position */
 1383              		.loc 1 267 43 view .LVU406
 1384 0086 D880     		strh	r0, [r3, #6]	@ movhi
 267:Core/Src/main.c ****         update_servo_pwm(FAILSAFE_CENTER);  /* move to failsafe position */
 1385              		.loc 1 267 34 view .LVU407
 1386 0088 9880     		strh	r0, [r3, #4]	@ movhi
 267:Core/Src/main.c ****         update_servo_pwm(FAILSAFE_CENTER);  /* move to failsafe position */
 1387              		.loc 1 267 25 view .LVU408
 1388 008a 5880     		strh	r0, [r3, #2]	@ movhi
 267:Core/Src/main.c ****         update_servo_pwm(FAILSAFE_CENTER);  /* move to failsafe position */
ARM GAS  C:\Users\bulli\AppData\Local\Temp\ccgdAJmu.s 			page 55


 1389              		.loc 1 267 16 view .LVU409
 1390 008c 1880     		strh	r0, [r3]	@ movhi
 268:Core/Src/main.c ****     }
 1391              		.loc 1 268 9 is_stmt 1 view .LVU410
 1392 008e FFF7FEFF 		bl	update_servo_pwm
 1393              	.LVL83:
 1394 0092 E4E7     		b	.L92
 1395              	.L98:
 273:Core/Src/main.c ****     } else {
 1396              		.loc 1 273 9 view .LVU411
 1397 0094 0122     		movs	r2, #1
 1398 0096 2021     		movs	r1, #32
 1399 0098 0648     		ldr	r0, .L99+20
 1400 009a FFF7FEFF 		bl	HAL_GPIO_WritePin
 1401              	.LVL84:
 1402 009e CDE7     		b	.L90
 1403              	.L100:
 1404              		.align	2
 1405              	.L99:
 1406 00a0 00000000 		.word	rx_byte
 1407 00a4 00000000 		.word	huart2
 1408 00a8 00000000 		.word	htim2
 1409 00ac 00000000 		.word	rc
 1410 00b0 00000000 		.word	last_toggle.0
 1411 00b4 00000240 		.word	1073872896
 1412              	.LBE28:
 1413              		.cfi_endproc
 1414              	.LFE139:
 1416              		.section	.bss.last_toggle.0,"aw",%nobits
 1417              		.align	2
 1420              	last_toggle.0:
 1421 0000 00000000 		.space	4
 1422              		.section	.bss.pidx,"aw",%nobits
 1425              	pidx:
 1426 0000 00       		.space	1
 1427              		.section	.bss.payload,"aw",%nobits
 1428              		.align	2
 1431              	payload:
 1432 0000 00000000 		.space	9
 1432      00000000 
 1432      00
 1433              		.section	.bss.pstate,"aw",%nobits
 1436              	pstate:
 1437 0000 00       		.space	1
 1438              		.section	.data.rc,"aw"
 1439              		.align	2
 1442              	rc:
 1443 0000 0004     		.short	1024
 1444 0002 0004     		.short	1024
 1445 0004 0004     		.short	1024
 1446 0006 0004     		.short	1024
 1447 0008 00000000 		.word	0
 1448 000c 00       		.byte	0
 1449 000d 000000   		.space	3
 1450              		.section	.bss.rb_tail,"aw",%nobits
 1451              		.align	1
 1454              	rb_tail:
ARM GAS  C:\Users\bulli\AppData\Local\Temp\ccgdAJmu.s 			page 56


 1455 0000 0000     		.space	2
 1456              		.section	.bss.rb_head,"aw",%nobits
 1457              		.align	1
 1460              	rb_head:
 1461 0000 0000     		.space	2
 1462              		.section	.bss.rb_buf,"aw",%nobits
 1463              		.align	2
 1466              	rb_buf:
 1467 0000 00000000 		.space	64
 1467      00000000 
 1467      00000000 
 1467      00000000 
 1467      00000000 
 1468              		.section	.bss.rx_byte,"aw",%nobits
 1471              	rx_byte:
 1472 0000 00       		.space	1
 1473              		.global	huart2
 1474              		.section	.bss.huart2,"aw",%nobits
 1475              		.align	2
 1478              	huart2:
 1479 0000 00000000 		.space	72
 1479      00000000 
 1479      00000000 
 1479      00000000 
 1479      00000000 
 1480              		.global	htim2
 1481              		.section	.bss.htim2,"aw",%nobits
 1482              		.align	2
 1485              	htim2:
 1486 0000 00000000 		.space	72
 1486      00000000 
 1486      00000000 
 1486      00000000 
 1486      00000000 
 1487              		.text
 1488              	.Letext0:
 1489              		.file 3 "C:/Users/bulli/AppData/Roaming/Code/User/globalStorage/bmd.stm32-for-vscode/@xpack-dev-to
 1490              		.file 4 "C:/Users/bulli/AppData/Roaming/Code/User/globalStorage/bmd.stm32-for-vscode/@xpack-dev-to
 1491              		.file 5 "Drivers/CMSIS/Device/ST/STM32F4xx/Include/stm32f401xe.h"
 1492              		.file 6 "Drivers/STM32F4xx_HAL_Driver/Inc/stm32f4xx_hal_def.h"
 1493              		.file 7 "Drivers/STM32F4xx_HAL_Driver/Inc/stm32f4xx_hal_rcc_ex.h"
 1494              		.file 8 "Drivers/STM32F4xx_HAL_Driver/Inc/stm32f4xx_hal_rcc.h"
 1495              		.file 9 "Drivers/STM32F4xx_HAL_Driver/Inc/stm32f4xx_hal_gpio.h"
 1496              		.file 10 "Drivers/STM32F4xx_HAL_Driver/Inc/stm32f4xx_hal_dma.h"
 1497              		.file 11 "Drivers/STM32F4xx_HAL_Driver/Inc/stm32f4xx_hal_tim.h"
 1498              		.file 12 "Drivers/STM32F4xx_HAL_Driver/Inc/stm32f4xx_hal_uart.h"
 1499              		.file 13 "Drivers/STM32F4xx_HAL_Driver/Inc/stm32f4xx_hal_tim_ex.h"
 1500              		.file 14 "Core/Inc/main.h"
 1501              		.file 15 "Drivers/STM32F4xx_HAL_Driver/Inc/stm32f4xx_hal.h"
 1502              		.file 16 "<built-in>"
ARM GAS  C:\Users\bulli\AppData\Local\Temp\ccgdAJmu.s 			page 57


DEFINED SYMBOLS
                            *ABS*:00000000 main.c
C:\Users\bulli\AppData\Local\Temp\ccgdAJmu.s:21     .text.crc8_dallas:00000000 $t
C:\Users\bulli\AppData\Local\Temp\ccgdAJmu.s:26     .text.crc8_dallas:00000000 crc8_dallas
C:\Users\bulli\AppData\Local\Temp\ccgdAJmu.s:134    .text.rb_push:00000000 $t
C:\Users\bulli\AppData\Local\Temp\ccgdAJmu.s:139    .text.rb_push:00000000 rb_push
C:\Users\bulli\AppData\Local\Temp\ccgdAJmu.s:187    .text.rb_push:00000034 $d
C:\Users\bulli\AppData\Local\Temp\ccgdAJmu.s:1460   .bss.rb_head:00000000 rb_head
C:\Users\bulli\AppData\Local\Temp\ccgdAJmu.s:1454   .bss.rb_tail:00000000 rb_tail
C:\Users\bulli\AppData\Local\Temp\ccgdAJmu.s:1466   .bss.rb_buf:00000000 rb_buf
C:\Users\bulli\AppData\Local\Temp\ccgdAJmu.s:194    .text.rb_pop:00000000 $t
C:\Users\bulli\AppData\Local\Temp\ccgdAJmu.s:199    .text.rb_pop:00000000 rb_pop
C:\Users\bulli\AppData\Local\Temp\ccgdAJmu.s:258    .text.rb_pop:0000003c $d
C:\Users\bulli\AppData\Local\Temp\ccgdAJmu.s:265    .text.update_servo_pwm:00000000 $t
C:\Users\bulli\AppData\Local\Temp\ccgdAJmu.s:270    .text.update_servo_pwm:00000000 update_servo_pwm
C:\Users\bulli\AppData\Local\Temp\ccgdAJmu.s:336    .text.update_servo_pwm:0000004c $d
C:\Users\bulli\AppData\Local\Temp\ccgdAJmu.s:1485   .bss.htim2:00000000 htim2
C:\Users\bulli\AppData\Local\Temp\ccgdAJmu.s:343    .text.parser_feed:00000000 $t
C:\Users\bulli\AppData\Local\Temp\ccgdAJmu.s:348    .text.parser_feed:00000000 parser_feed
C:\Users\bulli\AppData\Local\Temp\ccgdAJmu.s:513    .text.parser_feed:000000a8 $d
C:\Users\bulli\AppData\Local\Temp\ccgdAJmu.s:1436   .bss.pstate:00000000 pstate
C:\Users\bulli\AppData\Local\Temp\ccgdAJmu.s:1425   .bss.pidx:00000000 pidx
C:\Users\bulli\AppData\Local\Temp\ccgdAJmu.s:1431   .bss.payload:00000000 payload
C:\Users\bulli\AppData\Local\Temp\ccgdAJmu.s:1442   .data.rc:00000000 rc
C:\Users\bulli\AppData\Local\Temp\ccgdAJmu.s:522    .text.MX_GPIO_Init:00000000 $t
C:\Users\bulli\AppData\Local\Temp\ccgdAJmu.s:527    .text.MX_GPIO_Init:00000000 MX_GPIO_Init
C:\Users\bulli\AppData\Local\Temp\ccgdAJmu.s:665    .text.MX_GPIO_Init:000000a0 $d
C:\Users\bulli\AppData\Local\Temp\ccgdAJmu.s:672    .text.HAL_UART_RxCpltCallback:00000000 $t
C:\Users\bulli\AppData\Local\Temp\ccgdAJmu.s:678    .text.HAL_UART_RxCpltCallback:00000000 HAL_UART_RxCpltCallback
C:\Users\bulli\AppData\Local\Temp\ccgdAJmu.s:721    .text.HAL_UART_RxCpltCallback:00000020 $d
C:\Users\bulli\AppData\Local\Temp\ccgdAJmu.s:1471   .bss.rx_byte:00000000 rx_byte
C:\Users\bulli\AppData\Local\Temp\ccgdAJmu.s:1478   .bss.huart2:00000000 huart2
C:\Users\bulli\AppData\Local\Temp\ccgdAJmu.s:728    .text.HAL_UART_ErrorCallback:00000000 $t
C:\Users\bulli\AppData\Local\Temp\ccgdAJmu.s:734    .text.HAL_UART_ErrorCallback:00000000 HAL_UART_ErrorCallback
C:\Users\bulli\AppData\Local\Temp\ccgdAJmu.s:829    .text.HAL_UART_ErrorCallback:00000050 $d
C:\Users\bulli\AppData\Local\Temp\ccgdAJmu.s:836    .text.Error_Handler:00000000 $t
C:\Users\bulli\AppData\Local\Temp\ccgdAJmu.s:842    .text.Error_Handler:00000000 Error_Handler
C:\Users\bulli\AppData\Local\Temp\ccgdAJmu.s:874    .text.MX_USART2_UART_Init:00000000 $t
C:\Users\bulli\AppData\Local\Temp\ccgdAJmu.s:879    .text.MX_USART2_UART_Init:00000000 MX_USART2_UART_Init
C:\Users\bulli\AppData\Local\Temp\ccgdAJmu.s:933    .text.MX_USART2_UART_Init:0000002c $d
C:\Users\bulli\AppData\Local\Temp\ccgdAJmu.s:939    .text.MX_TIM2_Init:00000000 $t
C:\Users\bulli\AppData\Local\Temp\ccgdAJmu.s:944    .text.MX_TIM2_Init:00000000 MX_TIM2_Init
C:\Users\bulli\AppData\Local\Temp\ccgdAJmu.s:1094   .text.MX_TIM2_Init:000000a0 $d
C:\Users\bulli\AppData\Local\Temp\ccgdAJmu.s:1099   .text.SystemClock_Config:00000000 $t
C:\Users\bulli\AppData\Local\Temp\ccgdAJmu.s:1105   .text.SystemClock_Config:00000000 SystemClock_Config
C:\Users\bulli\AppData\Local\Temp\ccgdAJmu.s:1249   .text.SystemClock_Config:0000009c $d
C:\Users\bulli\AppData\Local\Temp\ccgdAJmu.s:1255   .text.main:00000000 $t
C:\Users\bulli\AppData\Local\Temp\ccgdAJmu.s:1261   .text.main:00000000 main
C:\Users\bulli\AppData\Local\Temp\ccgdAJmu.s:1406   .text.main:000000a0 $d
C:\Users\bulli\AppData\Local\Temp\ccgdAJmu.s:1420   .bss.last_toggle.0:00000000 last_toggle.0
C:\Users\bulli\AppData\Local\Temp\ccgdAJmu.s:1417   .bss.last_toggle.0:00000000 $d
C:\Users\bulli\AppData\Local\Temp\ccgdAJmu.s:1426   .bss.pidx:00000000 $d
C:\Users\bulli\AppData\Local\Temp\ccgdAJmu.s:1428   .bss.payload:00000000 $d
C:\Users\bulli\AppData\Local\Temp\ccgdAJmu.s:1437   .bss.pstate:00000000 $d
C:\Users\bulli\AppData\Local\Temp\ccgdAJmu.s:1439   .data.rc:00000000 $d
C:\Users\bulli\AppData\Local\Temp\ccgdAJmu.s:1451   .bss.rb_tail:00000000 $d
C:\Users\bulli\AppData\Local\Temp\ccgdAJmu.s:1457   .bss.rb_head:00000000 $d
ARM GAS  C:\Users\bulli\AppData\Local\Temp\ccgdAJmu.s 			page 58


C:\Users\bulli\AppData\Local\Temp\ccgdAJmu.s:1463   .bss.rb_buf:00000000 $d
C:\Users\bulli\AppData\Local\Temp\ccgdAJmu.s:1472   .bss.rx_byte:00000000 $d
C:\Users\bulli\AppData\Local\Temp\ccgdAJmu.s:1475   .bss.huart2:00000000 $d
C:\Users\bulli\AppData\Local\Temp\ccgdAJmu.s:1482   .bss.htim2:00000000 $d

UNDEFINED SYMBOLS
HAL_GetTick
HAL_GPIO_WritePin
HAL_GPIO_Init
HAL_UART_Receive_IT
HAL_UART_Init
HAL_TIM_Base_Init
HAL_TIM_ConfigClockSource
HAL_TIM_PWM_Init
HAL_TIMEx_MasterConfigSynchronization
HAL_TIM_PWM_ConfigChannel
HAL_TIM_MspPostInit
memset
HAL_RCC_OscConfig
HAL_RCC_ClockConfig
HAL_Init
HAL_TIM_PWM_Start
HAL_GPIO_TogglePin
